_TEXT	segment dword use32 public 'CODE'	;size is 5305
_TEXT	ends
_DATA	segment dword use32 public 'DATA'	;size is 423
_DATA	ends
CONST	segment dword use32 public 'CONST'	;size is 0
CONST	ends
_BSS	segment dword use32 public 'BSS'	;size is 0
_BSS	ends
FLAT	group	
	extrn	??_7Object@@6B@
	extrn	??_7Dsymbol@@6B@
	extrn	??_GObject@@UAEPAXI@Z
	extrn	??_GDsymbol@@UAEPAXI@Z
	extrn	?dyncast@Dsymbol@@UAEHXZ
	extrn	?addLocalClass@Dsymbol@@UAEXPAUClassDeclarations@@@Z
	extrn	?checkCtorConstInit@Dsymbol@@UAEXXZ
	extrn	?isPackage@Dsymbol@@UAEPAUPackage@@XZ
	extrn	?isModule@Dsymbol@@UAEPAUModule@@XZ
	extrn	?isEnumMember@Dsymbol@@UAEPAUEnumMember@@XZ
	extrn	?isTemplateDeclaration@Dsymbol@@UAEPAUTemplateDeclaration@@XZ
	extrn	?isTemplateInstance@Dsymbol@@UAEPAUTemplateInstance@@XZ
	extrn	?isTemplateMixin@Dsymbol@@UAEPAUTemplateMixin@@XZ
	extrn	?isDeclaration@Dsymbol@@UAEPAUDeclaration@@XZ
	extrn	?isThisDeclaration@Dsymbol@@UAEPAUThisDeclaration@@XZ
	extrn	?isTupleDeclaration@Dsymbol@@UAEPAUTupleDeclaration@@XZ
	extrn	?isTypedefDeclaration@Dsymbol@@UAEPAUTypedefDeclaration@@XZ
	extrn	?isAliasDeclaration@Dsymbol@@UAEPAUAliasDeclaration@@XZ
	extrn	?isAggregateDeclaration@Dsymbol@@UAEPAUAggregateDeclaration@@XZ
	extrn	?isFuncDeclaration@Dsymbol@@UAEPAUFuncDeclaration@@XZ
	extrn	?isFuncAliasDeclaration@Dsymbol@@UAEPAUFuncAliasDeclaration@@XZ
	extrn	?isFuncLiteralDeclaration@Dsymbol@@UAEPAUFuncLiteralDeclaration@@XZ
	extrn	?isCtorDeclaration@Dsymbol@@UAEPAUCtorDeclaration@@XZ
	extrn	?isPostBlitDeclaration@Dsymbol@@UAEPAUPostBlitDeclaration@@XZ
	extrn	?isDtorDeclaration@Dsymbol@@UAEPAUDtorDeclaration@@XZ
	extrn	?isStaticCtorDeclaration@Dsymbol@@UAEPAUStaticCtorDeclaration@@XZ
	extrn	?isStaticDtorDeclaration@Dsymbol@@UAEPAUStaticDtorDeclaration@@XZ
	extrn	?isInvariantDeclaration@Dsymbol@@UAEPAUInvariantDeclaration@@XZ
	extrn	?isUnitTestDeclaration@Dsymbol@@UAEPAUUnitTestDeclaration@@XZ
	extrn	?isNewDeclaration@Dsymbol@@UAEPAUNewDeclaration@@XZ
	extrn	?isVarDeclaration@Dsymbol@@UAEPAUVarDeclaration@@XZ
	extrn	?isClassDeclaration@Dsymbol@@UAEPAUClassDeclaration@@XZ
	extrn	?isStructDeclaration@Dsymbol@@UAEPAUStructDeclaration@@XZ
	extrn	?isUnionDeclaration@Dsymbol@@UAEPAUUnionDeclaration@@XZ
	extrn	?isInterfaceDeclaration@Dsymbol@@UAEPAUInterfaceDeclaration@@XZ
	extrn	?isScopeDsymbol@Dsymbol@@UAEPAUScopeDsymbol@@XZ
	extrn	?isWithScopeSymbol@Dsymbol@@UAEPAUWithScopeSymbol@@XZ
	extrn	?isArrayScopeSymbol@Dsymbol@@UAEPAUArrayScopeSymbol@@XZ
	extrn	?isImport@Dsymbol@@UAEPAUImport@@XZ
	extrn	?isEnumDeclaration@Dsymbol@@UAEPAUEnumDeclaration@@XZ
	extrn	?isDeleteDeclaration@Dsymbol@@UAEPAUDeleteDeclaration@@XZ
	extrn	?isSymbolDeclaration@Dsymbol@@UAEPAUSymbolDeclaration@@XZ
	extrn	?isAttribDeclaration@Dsymbol@@UAEPAUAttribDeclaration@@XZ
	extrn	?isOverloadSet@Dsymbol@@UAEPAUOverloadSet@@XZ

	public	??0Dsymbol@@QAE@XZ
	public	??0Dsymbol@@QAE@PAUIdentifier@@@Z
	public	?equals@Dsymbol@@UAEHPAUObject@@@Z
	public	?syntaxCopy@Dsymbol@@UAEPAU1@PAU1@@Z
	public	?oneMember@Dsymbol@@UAEHPAPAU1@@Z
	public	?oneMembers@Dsymbol@@SAHPAUArray@@PAPAU1@@Z
	public	?hasPointers@Dsymbol@@UAEHXZ
	public	?toChars@Dsymbol@@UAEPADXZ
	public	?toPrettyChars@Dsymbol@@UAEPBDXZ
	public	?locToChars@Dsymbol@@QAEPADXZ
	public	?kind@Dsymbol@@UAEPBDXZ
	public	?toAlias@Dsymbol@@UAEPAU1@XZ
	public	?toParent@Dsymbol@@QAEPAU1@XZ
	public	?pastMixin@Dsymbol@@QAEPAU1@XZ
	public	?toParent2@Dsymbol@@QAEPAU1@XZ
	public	?inTemplateInstance@Dsymbol@@QAEPAUTemplateInstance@@XZ
	public	?isAnonymous@Dsymbol@@QAEHXZ
	public	?setScope@Dsymbol@@UAEXPAUScope@@@Z
	public	?importAll@Dsymbol@@UAEXPAUScope@@@Z
	public	?semantic0@Dsymbol@@UAEXPAUScope@@@Z
	public	?semantic@Dsymbol@@UAEXPAUScope@@@Z
	public	?semantic2@Dsymbol@@UAEXPAUScope@@@Z
	extrn	??_7Identifier@@6B@

	public	?semantic3@Dsymbol@@UAEXPAUScope@@@Z
	public	?inlineScan@Dsymbol@@UAEXXZ
	public	?search@Dsymbol@@UAEPAU1@ULoc@@PAUIdentifier@@H@Z
	extrn	??_GIdentifier@@UAEPAXI@Z

	public	?symbol_search_fp@@YAPAXPAXPBD@Z
	public	?search_correct@Dsymbol@@QAEPAU1@PAUIdentifier@@@Z
	public	?searchX@Dsymbol@@QAEPAU1@ULoc@@PAUScope@@PAUIdentifier@@@Z
	public	?overloadInsert@Dsymbol@@UAEHPAU1@@Z
	public	?toCBuffer@Dsymbol@@UAEXPAUOutBuffer@@PAUHdrGenState@@@Z
	public	?size@Dsymbol@@UAEIULoc@@@Z
	public	?isforwardRef@Dsymbol@@UAEHXZ
	public	?isThis@Dsymbol@@UAEPAUAggregateDeclaration@@XZ
	public	?isClassMember@Dsymbol@@UAEPAUClassDeclaration@@XZ
	public	?defineRef@Dsymbol@@UAEXPAU1@@Z
	public	?isExport@Dsymbol@@UAEHXZ
	public	?isImportedSymbol@Dsymbol@@UAEHXZ
	public	?isDeprecated@Dsymbol@@UAEHXZ
	public	?isLabel@Dsymbol@@UAEPAULabelDsymbol@@XZ
	public	?isMember@Dsymbol@@UAEPAUAggregateDeclaration@@XZ
	public	?getType@Dsymbol@@UAEPAUType@@XZ
	public	?needThis@Dsymbol@@UAEHXZ
	public	?addMember@Dsymbol@@UAEHPAUScope@@PAUScopeDsymbol@@H@Z
	public	?error@Dsymbol@@QAAXPBDZZ
	public	?error@Dsymbol@@QAAXULoc@@PBDZZ
	public	?checkDeprecated@Dsymbol@@QAEXULoc@@PAUScope@@@Z
	public	?getModule@Dsymbol@@QAEPAUModule@@XZ
	public	?prot@Dsymbol@@UAE?AW4PROT@@XZ
	extrn	??_7ScopeDsymbol@@6B@
	extrn	??_GScopeDsymbol@@UAEPAXI@Z
	extrn	?isScopeDsymbol@ScopeDsymbol@@UAEPAU1@XZ

	public	?arraySyntaxCopy@Dsymbol@@SAPAUArray@@PAU2@@Z
	public	?addComment@Dsymbol@@UAEXPAE@Z
	public	??0ScopeDsymbol@@QAE@XZ
	public	??0ScopeDsymbol@@QAE@PAUIdentifier@@@Z
	public	?syntaxCopy@ScopeDsymbol@@UAEPAUDsymbol@@PAU2@@Z
	public	?search@ScopeDsymbol@@UAEPAUDsymbol@@ULoc@@PAUIdentifier@@H@Z
	public	?importScope@ScopeDsymbol@@QAEXPAU1@W4PROT@@@Z
	public	?isforwardRef@ScopeDsymbol@@UAEHXZ
	public	?defineRef@ScopeDsymbol@@UAEXPAUDsymbol@@@Z
	public	?multiplyDefined@ScopeDsymbol@@SAXULoc@@PAUDsymbol@@1@Z
	public	?nameCollision@ScopeDsymbol@@QAEPAUDsymbol@@PAU2@@Z
	extrn	??_7WithScopeSymbol@@6B@
	extrn	??_GWithScopeSymbol@@UAEPAXI@Z
	extrn	?isWithScopeSymbol@WithScopeSymbol@@UAEPAU1@XZ

	public	?kind@ScopeDsymbol@@UAEPBDXZ
	public	?symtabInsert@ScopeDsymbol@@UAEPAUDsymbol@@PAU2@@Z
	public	??0WithScopeSymbol@@QAE@PAUWithStatement@@@Z
	extrn	??_7ArrayScopeSymbol@@6B@
	extrn	??_GArrayScopeSymbol@@UAEPAXI@Z
	extrn	?isArrayScopeSymbol@ArrayScopeSymbol@@UAEPAU1@XZ

	public	?search@WithScopeSymbol@@UAEPAUDsymbol@@ULoc@@PAUIdentifier@@H@Z
	public	??0ArrayScopeSymbol@@QAE@PAUExpression@@@Z
	public	??0ArrayScopeSymbol@@QAE@PAUTypeTuple@@@Z
	public	??0ArrayScopeSymbol@@QAE@PAUTupleDeclaration@@@Z
	extrn	??_7DsymbolTable@@6B@
	extrn	??_GDsymbolTable@@UAEPAXI@Z

	public	?search@ArrayScopeSymbol@@UAEPAUDsymbol@@ULoc@@PAUIdentifier@@H@Z
	public	??0DsymbolTable@@QAE@XZ
	public	??1DsymbolTable@@UAE@XZ
	public	?lookup@DsymbolTable@@QAEPAUDsymbol@@PAUIdentifier@@@Z
	public	?insert@DsymbolTable@@QAEPAUDsymbol@@PAU2@@Z
includelib SNN.lib
	extrn	?_aaGet@@YAPAPAXPAPAUAA@@PAX@Z
	extrn	?_aaGetRvalue@@YAPAXPAUAA@@PAX@Z
	extrn	??3@YAXPAX@Z
	extrn	?dyncast@Object@@UAEHXZ
	extrn	?toBuffer@Object@@UAEXPAUOutBuffer@@@Z
	extrn	?toDchars@Object@@UAEPADXZ
	extrn	?toChars@Object@@UAEPADXZ
	extrn	?print@Object@@UAEXXZ
	extrn	?compare@Object@@UAEHPAU1@@Z
	extrn	?hashCode@Object@@UAEIXZ
	extrn	?equals@Object@@UAEHPAU1@@Z
	extrn	??0ExpInitializer@@QAE@ULoc@@PAUExpression@@@Z
	extrn	??2@YAPAXI@Z
	extrn	??0IntegerExp@@QAE@ULoc@@_KPAUType@@@Z
	extrn	?basic@Type@@2QAPAU1@A
	extrn	?Tsize_t@@3HA
	extrn	??0VarDeclaration@@QAE@ULoc@@PAUType@@PAUIdentifier@@PAUInitializer@@@Z
	extrn	?dollar@Id@@2PAUIdentifier@@A
	extrn	?length@Id@@2PAUIdentifier@@A
	extrn	__assert
	extrn	?cvMember@Dsymbol@@UAEHPAE@Z
	extrn	?toObjFile@Dsymbol@@UAEXH@Z
	extrn	?toSymbol@Dsymbol@@UAEPAUSymbol@@XZ
	extrn	?emitComment@Dsymbol@@UAEXPAUScope@@@Z
	extrn	?mangle@Dsymbol@@UAEPADXZ
	extrn	?toJsonBuffer@Dsymbol@@UAEXPAUOutBuffer@@@Z
	extrn	?toDocBuffer@Dsymbol@@UAEXPAUOutBuffer@@@Z
	extrn	?toHBuffer@Dsymbol@@UAEXPAUOutBuffer@@PAUHdrGenState@@@Z
	extrn	?error@@YAXULoc@@PBDZZ
	extrn	?realloc@Mem@@QAEPAXPAXI@Z
	extrn	?mem@@3UMem@@A
	extrn	?push@Array@@QAEXPAX@Z
	extrn	??0Array@@QAE@XZ
	extrn	?combineComments@Lexer@@SAPAEPAE0@Z
	extrn	_strcmp
	extrn	?copy@Array@@QAEPAU1@XZ
	extrn	?global@@3UGlobal@@A
	extrn	_fflush
	extrn	__iob
	extrn	_fprintf
	extrn	_vfprintf
	extrn	?free@Mem@@QAEXPAX@Z
	extrn	?toChars@Loc@@QAEPADXZ
	extrn	?mangleof@Id@@2PAUIdentifier@@A
	extrn	?__xalignof@Id@@2PAUIdentifier@@A
	extrn	?__sizeof@Id@@2PAUIdentifier@@A
	extrn	?writestring@OutBuffer@@QAEXPBD@Z
	extrn	?speller@@YAPAXPBDP6APAXPAX0@Z10@Z
	extrn	?idchars@@3QBDB
	extrn	?clearCache@Module@@SAXXZ
	extrn	??0Identifier@@QAE@PBDH@Z
	extrn	?dyncast@Identifier@@UAEHXZ
	extrn	?toChars@Identifier@@UAEPADXZ
	extrn	?print@Identifier@@UAEXXZ
	extrn	?compare@Identifier@@UAEHPAUObject@@@Z
	extrn	?hashCode@Identifier@@UAEIXZ
	extrn	?equals@Identifier@@UAEHPAUObject@@@Z
	extrn	?setNoFree@Scope@@QAEXXZ
	extrn	??1OutBuffer@@UAE@XZ
	extrn	??0OutBuffer@@QAE@XZ
	extrn	_memcpy
	extrn	_strlen
	extrn	?malloc@Mem@@QAEPAXI@Z
	extrn	_printf

	public	?insert@DsymbolTable@@QAEPAUDsymbol@@PAUIdentifier@@PAU2@@Z
	public	?update@DsymbolTable@@QAEPAUDsymbol@@PAU2@@Z
??_7Object@@6B@	COMDAT flags=x0 attr=x10 align=x0 
??_7Dsymbol@@6B@	COMDAT flags=x0 attr=x10 align=x0 
??_GObject@@UAEPAXI@Z	COMDAT flags=x0 attr=x10 align=x0 
??_GDsymbol@@UAEPAXI@Z	COMDAT flags=x0 attr=x10 align=x0 
?dyncast@Dsymbol@@UAEHXZ	COMDAT flags=x0 attr=x10 align=x0 
?addLocalClass@Dsymbol@@UAEXPAUClassDeclarations@@@Z	COMDAT flags=x0 attr=x10 align=x0 
?checkCtorConstInit@Dsymbol@@UAEXXZ	COMDAT flags=x0 attr=x10 align=x0 
?isPackage@Dsymbol@@UAEPAUPackage@@XZ	COMDAT flags=x0 attr=x10 align=x0 
?isModule@Dsymbol@@UAEPAUModule@@XZ	COMDAT flags=x0 attr=x10 align=x0 
?isEnumMember@Dsymbol@@UAEPAUEnumMember@@XZ	COMDAT flags=x0 attr=x10 align=x0 
?isTemplateDeclaration@Dsymbol@@UAEPAUTemplateDeclaration@@XZ	COMDAT flags=x0 attr=x10 align=x0 
?isTemplateInstance@Dsymbol@@UAEPAUTemplateInstance@@XZ	COMDAT flags=x0 attr=x10 align=x0 
?isTemplateMixin@Dsymbol@@UAEPAUTemplateMixin@@XZ	COMDAT flags=x0 attr=x10 align=x0 
?isDeclaration@Dsymbol@@UAEPAUDeclaration@@XZ	COMDAT flags=x0 attr=x10 align=x0 
?isThisDeclaration@Dsymbol@@UAEPAUThisDeclaration@@XZ	COMDAT flags=x0 attr=x10 align=x0 
?isTupleDeclaration@Dsymbol@@UAEPAUTupleDeclaration@@XZ	COMDAT flags=x0 attr=x10 align=x0 
?isTypedefDeclaration@Dsymbol@@UAEPAUTypedefDeclaration@@XZ	COMDAT flags=x0 attr=x10 align=x0 
?isAliasDeclaration@Dsymbol@@UAEPAUAliasDeclaration@@XZ	COMDAT flags=x0 attr=x10 align=x0 
?isAggregateDeclaration@Dsymbol@@UAEPAUAggregateDeclaration@@XZ	COMDAT flags=x0 attr=x10 align=x0 
?isFuncDeclaration@Dsymbol@@UAEPAUFuncDeclaration@@XZ	COMDAT flags=x0 attr=x10 align=x0 
?isFuncAliasDeclaration@Dsymbol@@UAEPAUFuncAliasDeclaration@@XZ	COMDAT flags=x0 attr=x10 align=x0 
?isFuncLiteralDeclaration@Dsymbol@@UAEPAUFuncLiteralDeclaration@@XZ	COMDAT flags=x0 attr=x10 align=x0 
?isCtorDeclaration@Dsymbol@@UAEPAUCtorDeclaration@@XZ	COMDAT flags=x0 attr=x10 align=x0 
?isPostBlitDeclaration@Dsymbol@@UAEPAUPostBlitDeclaration@@XZ	COMDAT flags=x0 attr=x10 align=x0 
?isDtorDeclaration@Dsymbol@@UAEPAUDtorDeclaration@@XZ	COMDAT flags=x0 attr=x10 align=x0 
?isStaticCtorDeclaration@Dsymbol@@UAEPAUStaticCtorDeclaration@@XZ	COMDAT flags=x0 attr=x10 align=x0 
?isStaticDtorDeclaration@Dsymbol@@UAEPAUStaticDtorDeclaration@@XZ	COMDAT flags=x0 attr=x10 align=x0 
?isInvariantDeclaration@Dsymbol@@UAEPAUInvariantDeclaration@@XZ	COMDAT flags=x0 attr=x10 align=x0 
?isUnitTestDeclaration@Dsymbol@@UAEPAUUnitTestDeclaration@@XZ	COMDAT flags=x0 attr=x10 align=x0 
?isNewDeclaration@Dsymbol@@UAEPAUNewDeclaration@@XZ	COMDAT flags=x0 attr=x10 align=x0 
?isVarDeclaration@Dsymbol@@UAEPAUVarDeclaration@@XZ	COMDAT flags=x0 attr=x10 align=x0 
?isClassDeclaration@Dsymbol@@UAEPAUClassDeclaration@@XZ	COMDAT flags=x0 attr=x10 align=x0 
?isStructDeclaration@Dsymbol@@UAEPAUStructDeclaration@@XZ	COMDAT flags=x0 attr=x10 align=x0 
?isUnionDeclaration@Dsymbol@@UAEPAUUnionDeclaration@@XZ	COMDAT flags=x0 attr=x10 align=x0 
?isInterfaceDeclaration@Dsymbol@@UAEPAUInterfaceDeclaration@@XZ	COMDAT flags=x0 attr=x10 align=x0 
?isScopeDsymbol@Dsymbol@@UAEPAUScopeDsymbol@@XZ	COMDAT flags=x0 attr=x10 align=x0 
?isWithScopeSymbol@Dsymbol@@UAEPAUWithScopeSymbol@@XZ	COMDAT flags=x0 attr=x10 align=x0 
?isArrayScopeSymbol@Dsymbol@@UAEPAUArrayScopeSymbol@@XZ	COMDAT flags=x0 attr=x10 align=x0 
?isImport@Dsymbol@@UAEPAUImport@@XZ	COMDAT flags=x0 attr=x10 align=x0 
?isEnumDeclaration@Dsymbol@@UAEPAUEnumDeclaration@@XZ	COMDAT flags=x0 attr=x10 align=x0 
?isDeleteDeclaration@Dsymbol@@UAEPAUDeleteDeclaration@@XZ	COMDAT flags=x0 attr=x10 align=x0 
?isSymbolDeclaration@Dsymbol@@UAEPAUSymbolDeclaration@@XZ	COMDAT flags=x0 attr=x10 align=x0 
?isAttribDeclaration@Dsymbol@@UAEPAUAttribDeclaration@@XZ	COMDAT flags=x0 attr=x10 align=x0 
?isOverloadSet@Dsymbol@@UAEPAUOverloadSet@@XZ	COMDAT flags=x0 attr=x10 align=x0 
??_7Identifier@@6B@	COMDAT flags=x0 attr=x10 align=x0 
??_GIdentifier@@UAEPAXI@Z	COMDAT flags=x0 attr=x10 align=x0 
??_7ScopeDsymbol@@6B@	COMDAT flags=x0 attr=x10 align=x0 
??_GScopeDsymbol@@UAEPAXI@Z	COMDAT flags=x0 attr=x10 align=x0 
?isScopeDsymbol@ScopeDsymbol@@UAEPAU1@XZ	COMDAT flags=x0 attr=x10 align=x0 
??_7WithScopeSymbol@@6B@	COMDAT flags=x0 attr=x10 align=x0 
??_GWithScopeSymbol@@UAEPAXI@Z	COMDAT flags=x0 attr=x10 align=x0 
?isWithScopeSymbol@WithScopeSymbol@@UAEPAU1@XZ	COMDAT flags=x0 attr=x10 align=x0 
??_7ArrayScopeSymbol@@6B@	COMDAT flags=x0 attr=x10 align=x0 
??_GArrayScopeSymbol@@UAEPAXI@Z	COMDAT flags=x0 attr=x10 align=x0 
?isArrayScopeSymbol@ArrayScopeSymbol@@UAEPAU1@XZ	COMDAT flags=x0 attr=x10 align=x0 
??_7DsymbolTable@@6B@	COMDAT flags=x0 attr=x10 align=x0 
??_GDsymbolTable@@UAEPAXI@Z	COMDAT flags=x0 attr=x10 align=x0 

_TEXT	segment
	assume	CS:_TEXT
??0Dsymbol@@QAE@XZ:
		push	ECX
		xor	EAX,EAX
		push	ECX
		push	EBX
		mov	EBX,ECX
		lea	EDX,01Ch[EBX]
		mov	dword ptr [ECX],offset FLAT:??_7Object@@6B@
		mov	4[EDX],EAX
		mov	[EDX],EAX
		push	ESI
		mov	0Ch[ESP],EAX
		mov	EDX,0Ch[ESP]
		mov	8[ESP],EAX
		mov	ESI,8[ESP]
		mov	4[EBX],EAX
		mov	8[EBX],EAX
		mov	0Ch[EBX],EAX
		mov	010h[EBX],EAX
		mov	014h[EBX],EAX
		mov	018h[EBX],EAX
		mov	024h[EBX],EAX
		mov	EAX,ECX
		mov	dword ptr [EBX],offset FLAT:??_7Dsymbol@@6B@
		mov	01Ch[EBX],ESI
		mov	020h[EBX],EDX
		pop	ESI
		pop	EBX
		add	ESP,8
		ret
		nop
??0Dsymbol@@QAE@PAUIdentifier@@@Z:
		push	ECX
		xor	EAX,EAX
		push	ECX
		push	EBX
		mov	EBX,ECX
		lea	EDX,01Ch[EBX]
		mov	dword ptr [ECX],offset FLAT:??_7Object@@6B@
		mov	4[EDX],EAX
		mov	[EDX],EAX
		push	ESI
		mov	ESI,014h[ESP]
		mov	0Ch[ESP],EAX
		mov	EDX,0Ch[ESP]
		mov	4[EBX],ESI
		mov	8[ESP],EAX
		mov	ESI,8[ESP]
		mov	8[EBX],EAX
		mov	0Ch[EBX],EAX
		mov	010h[EBX],EAX
		mov	014h[EBX],EAX
		mov	018h[EBX],EAX
		mov	024h[EBX],EAX
		mov	EAX,ECX
		mov	dword ptr [EBX],offset FLAT:??_7Dsymbol@@6B@
		mov	01Ch[EBX],ESI
		mov	020h[EBX],EDX
		pop	ESI
		pop	EBX
		add	ESP,8
		ret	4
?equals@Dsymbol@@UAEHPAUObject@@@Z:
		push	ECX
		mov	EAX,8[ESP]
		cmp	ECX,EAX
		je	LC1
		test	EAX,EAX
		je	LCA
		mov	ECX,4[ECX]
		push	dword ptr 4[EAX]
		mov	EDX,[ECX]
		call	dword ptr 4[EDX]
		test	EAX,EAX
		je	LCA
LC1:		pop	ECX
		mov	EAX,1
		ret	4
LCA:		pop	ECX
		xor	EAX,EAX
		ret	4
?syntaxCopy@Dsymbol@@UAEPAU1@PAU1@@Z:
		push	ECX
		mov	EAX,[ECX]
		push	EBX
		mov	EBX,ECX
		push	ESI
		call	dword ptr 010h[EAX]
		mov	EDX,[EBX]
		mov	ECX,EBX
		call	dword ptr 014h[EDX]
		mov	ESI,[EBX]
		mov	ECX,EBX
		push	EAX
		call	dword ptr 028h[ESI]
		push	EAX
		push	offset FLAT:_DATA
		call	near ptr _printf
		push	054h
		push	offset FLAT:_DATA[8]
		push	offset FLAT:_DATA[014h]
		call	near ptr __assert
		add	ESP,0Ch
		xor	EAX,EAX
		pop	ESI
		pop	EBX
		pop	ECX
		ret	4
?oneMember@Dsymbol@@UAEHPAPAU1@@Z:
		push	ECX
		mov	EAX,8[ESP]
		mov	[EAX],ECX
		mov	EAX,1
		pop	ECX
		ret	4
?oneMembers@Dsymbol@@SAHPAUArray@@PAPAU1@@Z:
		push	EAX
		push	EBX
		push	EBP
		mov	EBP,014h[ESP]
		push	ESI
		push	EDI
		mov	EDI,018h[ESP]
		test	EDI,EDI
		mov	dword ptr 010h[ESP],0
		je	L19B
		xor	EBX,EBX
		cmp	4[EDI],EBX
		je	L19B
L140:		mov	ECX,8[EDI]
		mov	ESI,[EBX*4][ECX]
		mov	EDX,[ESI]
		push	EBP
		mov	ECX,ESI
		call	dword ptr 0A4h[EDX]
		test	EAX,EAX
		jne	L174
		cmp	dword ptr 0[EBP],0
		je	L16C
		push	07Ah
		push	offset FLAT:_DATA[8]
		push	offset FLAT:_DATA[018h]
		call	near ptr __assert
L16C:		xor	EAX,EAX
		pop	EDI
		pop	ESI
		pop	EBP
		pop	EBX
		pop	ECX
		ret
L174:		mov	ECX,0[EBP]
		test	ECX,ECX
		je	L195
		cmp	dword ptr 010h[ESP],0
		je	L191
		mov	dword ptr 0[EBP],0
		xor	EAX,EAX
		pop	EDI
		pop	ESI
		pop	EBP
		pop	EBX
		pop	ECX
		ret
L191:		mov	010h[ESP],ECX
L195:		inc	EBX
		cmp	4[EDI],EBX
		ja	L140
L19B:		mov	EBX,010h[ESP]
		mov	EAX,1
		mov	0[EBP],EBX
		pop	EDI
		pop	ESI
		pop	EBP
		pop	EBX
		pop	ECX
		ret
		nop
		nop
		nop
?hasPointers@Dsymbol@@UAEHXZ:
		push	ECX
		xor	EAX,EAX
		pop	ECX
		ret
?toChars@Dsymbol@@UAEPADXZ:
		push	ECX
		mov	EAX,4[ECX]
		test	EAX,EAX
		je	L1C6
		mov	EDX,[EAX]
		mov	ECX,EAX
		call	dword ptr 014h[EDX]
		jmp short	L1CB
L1C6:		mov	EAX,offset FLAT:_DATA[024h]
L1CB:		pop	ECX
		ret
		nop
		nop
		nop
?toPrettyChars@Dsymbol@@UAEPBDXZ:
		push	ECX
		push	EBX
		push	EBP
		mov	EBP,ECX
		push	ESI
		push	EDI
		cmp	dword ptr 0Ch[ECX],0
		jne	L1E9
		mov	EAX,0[EBP]
		call	dword ptr 014h[EAX]
		pop	EDI
		pop	ESI
		pop	EBP
		pop	EBX
		pop	ECX
		ret
L1E9:		xor	EDI,EDI
		mov	EBX,ECX
		test	ECX,ECX
		je	L20B
L1F1:		mov	EDX,[EBX]
		mov	ECX,EBX
		call	dword ptr 014h[EDX]
		push	EAX
		call	near ptr _strlen
		inc	EAX
		add	ESP,4
		add	EDI,EAX
		mov	EBX,0Ch[EBX]
		test	EBX,EBX
		jne	L1F1
L20B:		push	EDI
		mov	ECX,offset FLAT:?mem@@3UMem@@A
		call	near ptr ?malloc@Mem@@QAEPAXI@Z
		mov	ESI,EAX
		lea	ESI,-1[ESI][EDI]
		mov	010h[ESP],EAX
		mov	EBX,EBP
		test	EBP,EBP
		mov	byte ptr [ESI],0
		je	L258
L229:		mov	EDX,[EBX]
		mov	ECX,EBX
		call	dword ptr 014h[EDX]
		mov	EBP,EAX
		push	EAX
		call	near ptr _strlen
		mov	EDI,EAX
		sub	ESI,EDI
		push	EDI
		push	EBP
		push	ESI
		call	near ptr _memcpy
		add	ESP,010h
		cmp	ESI,010h[ESP]
		je	L258
		dec	ESI
		mov	byte ptr [ESI],02Eh
		mov	EBX,0Ch[EBX]
		test	EBX,EBX
		jne	L229
L258:		mov	EAX,010h[ESP]
		pop	EDI
		pop	ESI
		pop	EBP
		pop	EBX
		pop	ECX
		ret
?locToChars@Dsymbol@@QAEPADXZ:
		sub	ESP,018h
		push	EBX
		mov	EBX,ECX
		lea	ECX,8[ESP]
		call	near ptr ??0OutBuffer@@QAE@XZ
		mov	ECX,EBX
		call	near ptr ?getModule@Dsymbol@@QAEPAUModule@@XZ
		test	EAX,EAX
		je	L28D
		cmp	dword ptr 040h[EAX],0
		je	L28D
		mov	ECX,040h[EAX]
		mov	EAX,[ECX]
		call	dword ptr 014h[EAX]
		mov	01Ch[EBX],EAX
L28D:		lea	ECX,01Ch[EBX]
		call	near ptr ?toChars@Loc@@QAEPADXZ
		lea	ECX,8[ESP]
		mov	018h[ESP],EAX
		call	near ptr ??1OutBuffer@@UAE@XZ
		mov	EAX,018h[ESP]
		pop	EBX
		add	ESP,018h
		ret
		nop
		nop
		nop
		nop
		nop
?kind@Dsymbol@@UAEPBDXZ:
		push	ECX
		mov	EAX,offset FLAT:_DATA[030h]
		pop	ECX
		ret
?toAlias@Dsymbol@@UAEPAU1@XZ:
		push	ECX
		mov	EAX,ECX
		pop	ECX
		ret
		nop
		nop
		nop
?toParent@Dsymbol@@QAEPAU1@XZ:
		push	ECX
		mov	EAX,0Ch[ECX]
		test	EAX,EAX
		je	L2D1
		mov	ECX,EAX
		call	near ptr ?pastMixin@Dsymbol@@QAEPAU1@XZ
		jmp short	L2D3
L2D1:		xor	EAX,EAX
L2D3:		pop	ECX
		ret
?pastMixin@Dsymbol@@QAEPAU1@XZ:
		push	ECX
		test	ECX,ECX
		push	EBX
		mov	EBX,ECX
		push	ESI
		mov	ESI,ECX
		je	L301
		mov	EDX,[ESI]
		call	dword ptr 0DCh[EDX]
		test	EAX,EAX
		je	L301
L2EC:		mov	EBX,0Ch[EBX]
		test	EBX,EBX
		je	L301
		mov	EAX,[EBX]
		mov	ECX,EBX
		call	dword ptr 0DCh[EAX]
		test	EAX,EAX
		jne	L2EC
L301:		pop	ESI
		mov	EAX,EBX
		pop	EBX
		pop	ECX
		ret
?toParent2@Dsymbol@@QAEPAU1@XZ:
		push	ECX
		push	ECX
		push	EBX
		mov	EBX,0Ch[ECX]
		test	EBX,EBX
		je	L334
		mov	EAX,[EBX]
		mov	ECX,EBX
		call	dword ptr 0D8h[EAX]
		test	EAX,EAX
		je	L334
L31F:		mov	EBX,0Ch[EBX]
		test	EBX,EBX
		je	L334
		mov	EDX,[EBX]
		mov	ECX,EBX
		call	dword ptr 0D8h[EDX]
		test	EAX,EAX
		jne	L31F
L334:		mov	EAX,EBX
		pop	EBX
		add	ESP,8
		ret
		nop
		nop
		nop
		nop
		nop
?inTemplateInstance@Dsymbol@@QAEPAUTemplateInstance@@XZ:
		push	ECX
		push	EBX
		mov	EBX,0Ch[ECX]
		test	EBX,EBX
		push	ESI
		je	L367
L34A:		mov	EDX,[EBX]
		mov	ECX,EBX
		call	dword ptr 0D8h[EDX]
		mov	ESI,EAX
		test	EAX,EAX
		je	L360
		mov	EAX,ESI
		pop	ESI
		pop	EBX
		pop	ECX
		ret
L360:		mov	EBX,0Ch[EBX]
		test	EBX,EBX
		jne	L34A
L367:		pop	ESI
		xor	EAX,EAX
		pop	EBX
		pop	ECX
		ret
		nop
		nop
		nop
?isAnonymous@Dsymbol@@QAEHXZ:
		cmp	dword ptr 4[ECX],1
		sbb	EAX,EAX
		neg	EAX
		push	ECX
		pop	ECX
		ret
		nop
		nop
		nop
		nop
		nop
?setScope@Dsymbol@@UAEXPAUScope@@@Z:
		push	ECX
		push	ECX
		push	EBX
		mov	EBX,010h[ESP]
		cmp	dword ptr 040h[EBX],0
		jne	L394
		mov	ECX,EBX
		call	near ptr ?setNoFree@Scope@@QAEXXZ
L394:		mov	EAX,8[ESP]
		mov	024h[EAX],EBX
		pop	EBX
		add	ESP,8
		ret	4
?importAll@Dsymbol@@UAEXPAUScope@@@Z:
		push	ECX
		pop	EAX
		ret	4
?semantic0@Dsymbol@@UAEXPAUScope@@@Z:
		push	ECX
		pop	EAX
		ret	4
		nop
		nop
		nop
		nop
?semantic@Dsymbol@@UAEXPAUScope@@@Z:
		push	ECX
		push	ECX
		push	offset FLAT:_DATA[038h]
		push	ECX
		call	near ptr ?error@Dsymbol@@QAAXPBDZZ
		add	ESP,0Ch
		pop	EAX
		ret	4
?semantic2@Dsymbol@@UAEXPAUScope@@@Z:
		push	ECX
		pop	EAX
		ret	4
		nop
		nop
		nop
		nop
		nop
		nop
		nop
?semantic3@Dsymbol@@UAEXPAUScope@@@Z:
		push	ECX
		pop	EAX
		ret	4
?inlineScan@Dsymbol@@UAEXXZ:
		push	ECX
		pop	EAX
		ret
?search@Dsymbol@@UAEPAU1@ULoc@@PAUIdentifier@@H@Z:
		push	ECX
		xor	EAX,EAX
		pop	ECX
		ret	010h
		nop
?symbol_search_fp@@YAPAXPAXPBD@Z:
		sub	ESP,018h
		push	EBX
		push	0
		push	dword ptr 028h[ESP]
		lea	ECX,0Ch[ESP]
		call	near ptr ??0Identifier@@QAE@PBDH@Z
		call	near ptr ?clearCache@Module@@SAXXZ
		push	6
		lea	EAX,8[ESP]
		mov	ECX,024h[ESP]
		push	EAX
		mov	EBX,[ECX]
		mov	dword ptr 020h[ESP],0
		mov	dword ptr 01Ch[ESP],0
		mov	EDX,020h[ESP]
		mov	EAX,01Ch[ESP]
		push	EDX
		push	EAX
		call	dword ptr 050h[EBX]
		pop	EBX
		add	ESP,018h
		ret
?search_correct@Dsymbol@@QAEPAU1@PAUIdentifier@@@Z:
		push	ECX
		cmp	dword ptr ?global@@3UGlobal@@A[0100h],0
		je	L437
		pop	ECX
		xor	EAX,EAX
		ret	4
L437:		push	offset FLAT:?idchars@@3QBDB
		push	ECX
		push	offset FLAT:?symbol_search_fp@@YAPAXPAXPBD@Z
		mov	ECX,014h[ESP]
		mov	EAX,[ECX]
		call	dword ptr 014h[EAX]
		push	EAX
		call	near ptr ?speller@@YAPAXPBDP6APAXPAX0@Z10@Z
		add	ESP,010h
		pop	ECX
		ret	4
?searchX@Dsymbol@@QAEPAU1@ULoc@@PAUScope@@PAUIdentifier@@@Z:
		push	ECX
		mov	EDX,[ECX]
		push	ECX
		push	EBX
		mov	EBX,01Ch[ESP]
		push	ESI
		push	EDI
		call	dword ptr 02Ch[EDX]
		mov	EDX,[EBX]
		mov	EDI,EAX
		mov	ECX,EBX
		call	dword ptr 020h[EDX]
		cmp	EAX,4
		je	L47E
		cmp	EAX,2
		je	L497
		jmp	near ptr L55C
L47E:		push	0
		mov	EDX,[EDI]
		mov	ECX,EDI
		push	EBX
		push	dword ptr 024h[ESP]
		push	dword ptr 024h[ESP]
		call	dword ptr 050h[EDX]
		mov	ESI,EAX
		jmp	near ptr L570
L497:		push	0
		mov	EDX,[EBX]
		mov	ECX,EBX
		call	dword ptr 0D8h[EDX]
		mov	EBX,038h[EAX]
		mov	EDX,[EDI]
		mov	010h[ESP],EAX
		mov	ECX,EDI
		push	EBX
		push	dword ptr 024h[ESP]
		push	dword ptr 024h[ESP]
		call	dword ptr 050h[EDX]
		mov	ESI,EAX
		test	EAX,EAX
		jne	L4F4
		mov	EDX,[EDI]
		mov	ECX,EDI
		call	dword ptr 014h[EDX]
		mov	EDX,[EDI]
		mov	ECX,EDI
		push	EAX
		call	dword ptr 028h[EDX]
		mov	EDX,[EBX]
		mov	ECX,EBX
		push	EAX
		call	dword ptr 014h[EDX]
		push	EAX
		push	offset FLAT:_DATA[054h]
		push	dword ptr 020h[ESP]
		call	near ptr ?error@Dsymbol@@QAAXPBDZZ
		add	ESP,014h
		xor	EAX,EAX
		pop	EDI
		pop	ESI
		pop	EBX
		add	ESP,8
		ret	010h
L4F4:		mov	EDX,[ESI]
		mov	ECX,ESI
		call	dword ptr 02Ch[EDX]
		mov	ESI,EAX
		mov	EDX,[ESI]
		mov	ECX,EAX
		call	dword ptr 0D4h[EDX]
		mov	EDI,EAX
		test	EAX,EAX
		jne	L539
		mov	EDX,[ESI]
		mov	ECX,ESI
		call	dword ptr 028h[EDX]
		mov	EDX,[EBX]
		mov	ECX,EBX
		push	EAX
		call	dword ptr 014h[EDX]
		push	EAX
		push	offset FLAT:_DATA[084h]
		push	dword ptr 01Ch[ESP]
		call	near ptr ?error@Dsymbol@@QAAXPBDZZ
		add	ESP,010h
		xor	EAX,EAX
		pop	EDI
		pop	ESI
		pop	EBX
		add	ESP,8
		ret	010h
L539:		mov	EBX,0Ch[ESP]
		mov	054h[EBX],EDI
		cmp	dword ptr 06Ch[EBX],0
		jne	L551
		push	dword ptr 020h[ESP]
		mov	ESI,[EBX]
		mov	ECX,EBX
		call	dword ptr 040h[ESI]
L551:		mov	EDX,[EBX]
		mov	ECX,EBX
		call	dword ptr 02Ch[EDX]
		mov	ESI,EAX
		jmp short	L570
L55C:		push	0198h
		push	offset FLAT:_DATA[8]
		push	offset FLAT:_DATA[014h]
		call	near ptr __assert
L570:		pop	EDI
		mov	EAX,ESI
		pop	ESI
		pop	EBX
		add	ESP,8
		ret	010h
		nop
		nop
		nop
		nop
		nop
?overloadInsert@Dsymbol@@UAEHPAU1@@Z:
		push	ECX
		xor	EAX,EAX
		pop	ECX
		ret	4
?toCBuffer@Dsymbol@@UAEXPAUOutBuffer@@PAUHdrGenState@@@Z:
		push	ECX
		mov	EAX,[ECX]
		call	dword ptr 014h[EAX]
		mov	ECX,8[ESP]
		push	EAX
		call	near ptr ?writestring@OutBuffer@@QAEXPBD@Z
		pop	EAX
		ret	8
		nop
		nop
		nop
		nop
		nop
?size@Dsymbol@@UAEIULoc@@@Z:
		push	EBX
		mov	EAX,[ECX]
		mov	EBX,ECX
		call	dword ptr 014h[EAX]
		push	EAX
		push	offset FLAT:_DATA[0A8h]
		push	EBX
		call	near ptr ?error@Dsymbol@@QAAXPBDZZ
		add	ESP,0Ch
		xor	EAX,EAX
		pop	EBX
		ret	8
		nop
		nop
		nop
?isforwardRef@Dsymbol@@UAEHXZ:
		push	ECX
		xor	EAX,EAX
		pop	ECX
		ret
?isThis@Dsymbol@@UAEPAUAggregateDeclaration@@XZ:
		push	ECX
		xor	EAX,EAX
		pop	ECX
		ret
		nop
		nop
		nop
		nop
		nop
		nop
?isClassMember@Dsymbol@@UAEPAUClassDeclaration@@XZ:
		push	ECX
		push	ECX
		push	EBX
		call	near ptr ?toParent@Dsymbol@@QAEPAU1@XZ
		mov	EBX,EAX
		test	EAX,EAX
		je	L5F0
		mov	EAX,[EBX]
		mov	ECX,EBX
		call	dword ptr 0128h[EAX]
		test	EAX,EAX
		je	L5F0
		mov	EAX,EBX
		jmp short	L5F2
L5F0:		xor	EAX,EAX
L5F2:		pop	EBX
		add	ESP,8
		ret
?defineRef@Dsymbol@@UAEXPAU1@@Z:
		push	ECX
		push	01C2h
		push	offset FLAT:_DATA[8]
		push	offset FLAT:_DATA[014h]
		call	near ptr __assert
		pop	EAX
		ret	4
?isExport@Dsymbol@@UAEHXZ:
		push	ECX
		xor	EAX,EAX
		pop	ECX
		ret
?isImportedSymbol@Dsymbol@@UAEHXZ:
		push	ECX
		xor	EAX,EAX
		pop	ECX
		ret
		nop
		nop
		nop
		nop
		nop
		nop
?isDeprecated@Dsymbol@@UAEHXZ:
		push	ECX
		xor	EAX,EAX
		pop	ECX
		ret
?isLabel@Dsymbol@@UAEPAULabelDsymbol@@XZ:
		push	ECX
		xor	EAX,EAX
		pop	ECX
		ret
		nop
		nop
		nop
		nop
		nop
		nop
?isMember@Dsymbol@@UAEPAUAggregateDeclaration@@XZ:
		push	ECX
		push	ECX
		push	EBX
		call	near ptr ?toParent@Dsymbol@@QAEPAU1@XZ
		mov	EBX,EAX
		test	EAX,EAX
		je	L64A
		mov	EAX,[EBX]
		mov	ECX,EBX
		call	dword ptr 0F4h[EAX]
		jmp short	L64C
L64A:		xor	EAX,EAX
L64C:		pop	EBX
		add	ESP,8
		ret
?getType@Dsymbol@@UAEPAUType@@XZ:
		push	ECX
		xor	EAX,EAX
		pop	ECX
		ret
?needThis@Dsymbol@@UAEHXZ:
		push	ECX
		xor	EAX,EAX
		pop	ECX
		ret
		nop
		nop
		nop
		nop
		nop
?addMember@Dsymbol@@UAEHPAUScope@@PAUScopeDsymbol@@H@Z:
		sub	ESP,014h
		push	EBX
		mov	EBX,020h[ESP]
		push	ESI
		mov	ESI,ECX
		mov	0Ch[ESI],EBX
		call	near ptr ?isAnonymous@Dsymbol@@QAEHXZ
		test	EAX,EAX
		jne	L726
		push	ESI
		mov	EDX,[EBX]
		mov	ECX,EBX
		call	dword ptr 015Ch[EDX]
		test	EAX,EAX
		jne	L6CC
		push	ESI
		mov	ECX,02Ch[EBX]
		push	dword ptr 4[ESI]
		call	near ptr ?lookup@DsymbolTable@@QAEPAUDsymbol@@PAUIdentifier@@@Z
		mov	ECX,EAX
		mov	EDX,[ECX]
		mov	010h[ESP],EAX
		call	dword ptr 054h[EDX]
		test	EAX,EAX
		jne	L6CC
		push	dword ptr 0Ch[ESP]
		push	ESI
		mov	dword ptr 020h[ESP],0
		mov	dword ptr 01Ch[ESP],0
		mov	EDX,020h[ESP]
		mov	EAX,01Ch[ESP]
		push	EDX
		push	EAX
		call	near ptr ?multiplyDefined@ScopeDsymbol@@SAXULoc@@PAUDsymbol@@1@Z
		add	ESP,010h
L6CC:		mov	EDX,[EBX]
		mov	ECX,EBX
		call	dword ptr 0F4h[EDX]
		test	EAX,EAX
		jne	L6E8
		mov	EDX,[EBX]
		mov	ECX,EBX
		call	dword ptr 0148h[EDX]
		test	EAX,EAX
		je	L719
L6E8:		mov	EAX,4[ESI]
		cmp	EAX,?__sizeof@Id@@2PAUIdentifier@@A
		je	L703
		cmp	EAX,?__xalignof@Id@@2PAUIdentifier@@A
		je	L703
		cmp	EAX,?mangleof@Id@@2PAUIdentifier@@A
		jne	L719
L703:		mov	EBX,[EAX]
		mov	ECX,EAX
		call	dword ptr 014h[EBX]
		push	EAX
		push	offset FLAT:_DATA[0C4h]
		push	ESI
		call	near ptr ?error@Dsymbol@@QAAXPBDZZ
		add	ESP,0Ch
L719:		pop	ESI
		mov	EAX,1
		pop	EBX
		add	ESP,014h
		ret	0Ch
L726:		pop	ESI
		xor	EAX,EAX
		pop	EBX
		add	ESP,014h
		ret	0Ch
?error@Dsymbol@@QAAXPBDZZ:
		push	EAX
		push	EBX
		push	ESI
		cmp	dword ptr ?global@@3UGlobal@@A[0100h],0
		jne	L800
		mov	ECX,010h[ESP]
		call	near ptr ?locToChars@Dsymbol@@QAEPADXZ
		mov	EBX,EAX
		cmp	byte ptr [EAX],0
		je	L763
		push	EBX
		push	offset FLAT:_DATA[0E8h]
		push	offset FLAT:__iob[040h]
		call	near ptr _fprintf
		add	ESP,0Ch
L763:		push	EBX
		mov	ECX,offset FLAT:?mem@@3UMem@@A
		call	near ptr ?free@Mem@@QAEXPAX@Z
		mov	EAX,offset FLAT:__iob[040h]
		push	offset FLAT:_DATA[0F0h]
		push	EAX
		call	near ptr _fprintf
		add	ESP,8
		mov	ECX,010h[ESP]
		call	near ptr ?isAnonymous@Dsymbol@@QAEHXZ
		test	EAX,EAX
		je	L7AC
		mov	ECX,010h[ESP]
		mov	EDX,[ECX]
		call	dword ptr 028h[EDX]
		push	EAX
		push	offset FLAT:_DATA[0F8h]
		push	offset FLAT:__iob[040h]
		call	near ptr _fprintf
		add	ESP,0Ch
		jmp short	L7D3
L7AC:		mov	ECX,010h[ESP]
		mov	EDX,[ECX]
		call	dword ptr 024h[EDX]
		mov	ECX,010h[ESP]
		push	EAX
		mov	EAX,[ECX]
		call	dword ptr 028h[EAX]
		mov	EBX,offset FLAT:__iob[040h]
		push	EAX
		push	offset FLAT:_DATA[0FCh]
		push	EBX
		call	near ptr _fprintf
		add	ESP,010h
L7D3:		lea	ESI,018h[ESP]
		mov	EAX,offset FLAT:__iob[040h]
		push	ESI
		push	dword ptr 018h[ESP]
		push	EAX
		call	near ptr _vfprintf
		mov	EBX,offset FLAT:__iob[040h]
		push	offset FLAT:_DATA[0104h]
		push	EBX
		call	near ptr _fprintf
		push	EBX
		call	near ptr _fflush
		add	ESP,018h
L800:		inc	dword ptr ?global@@3UGlobal@@A[0F8h]
		pop	ESI
		pop	EBX
		pop	EAX
		ret
		nop
		nop
		nop
		nop
		nop
		nop
?error@Dsymbol@@QAAXULoc@@PBDZZ:
		push	EBX
		push	ESI
		push	EDI
		cmp	dword ptr ?global@@3UGlobal@@A[0100h],0
		jne	L8C4
		lea	ECX,014h[ESP]
		call	near ptr ?toChars@Loc@@QAEPADXZ
		mov	EBX,EAX
		cmp	byte ptr [EAX],0
		jne	L83B
		mov	ECX,010h[ESP]
		call	near ptr ?locToChars@Dsymbol@@QAEPADXZ
		mov	EBX,EAX
L83B:		cmp	byte ptr [EBX],0
		je	L853
		push	EBX
		push	offset FLAT:_DATA[0E8h]
		push	offset FLAT:__iob[040h]
		call	near ptr _fprintf
		add	ESP,0Ch
L853:		push	EBX
		mov	ECX,offset FLAT:?mem@@3UMem@@A
		call	near ptr ?free@Mem@@QAEXPAX@Z
		mov	EAX,offset FLAT:__iob[040h]
		push	offset FLAT:_DATA[0F0h]
		push	EAX
		call	near ptr _fprintf
		mov	ECX,018h[ESP]
		mov	EDX,[ECX]
		call	dword ptr 024h[EDX]
		mov	ECX,018h[ESP]
		mov	ESI,[ECX]
		push	EAX
		call	dword ptr 028h[ESI]
		push	EAX
		mov	EAX,offset FLAT:__iob[040h]
		push	offset FLAT:_DATA[0FCh]
		push	EAX
		call	near ptr _fprintf
		lea	EDI,038h[ESP]
		mov	EDX,offset FLAT:__iob[040h]
		push	EDI
		push	dword ptr 038h[ESP]
		push	EDX
		call	near ptr _vfprintf
		mov	ECX,offset FLAT:__iob[040h]
		push	offset FLAT:_DATA[0104h]
		push	ECX
		call	near ptr _fprintf
		mov	ESI,offset FLAT:__iob[040h]
		push	ESI
		call	near ptr _fflush
		add	ESP,030h
L8C4:		inc	dword ptr ?global@@3UGlobal@@A[0F8h]
		pop	EDI
		pop	ESI
		pop	EBX
		ret
		nop
		nop
?checkDeprecated@Dsymbol@@QAEXULoc@@PAUScope@@@Z:
		push	ECX
		push	EBX
		mov	EBX,ECX
		push	ESI
		mov	ESI,018h[ESP]
		cmp	byte ptr ?global@@3UGlobal@@A[055h],0
		jne	L956
		mov	EDX,[EBX]
		call	dword ptr 084h[EDX]
		test	EAX,EAX
		je	L956
		mov	8[ESP],EBX
		mov	EBX,014h[ESI]
		test	EBX,EBX
		je	L90E
L8F9:		mov	EDX,[EBX]
		mov	ECX,EBX
		call	dword ptr 084h[EDX]
		test	EAX,EAX
		jne	L956
		mov	EBX,0Ch[EBX]
		test	EBX,EBX
		jne	L8F9
L90E:		mov	EBX,8[ESP]
		test	ESI,ESI
		je	L940
L916:		mov	ECX,8[ESI]
		test	ECX,ECX
		je	L929
		mov	EDX,[ECX]
		call	dword ptr 084h[EDX]
		test	EAX,EAX
		jne	L956
L929:		mov	EAX,070h[ESI]
		mov	EDX,074h[ESI]
		and	EAX,0400h
		xor	EDX,EDX
		or	EDX,EAX
		jne	L956
		mov	ESI,[ESI]
		test	ESI,ESI
		jne	L916
L940:		push	offset FLAT:_DATA[0108h]
		push	dword ptr 018h[ESP]
		push	dword ptr 018h[ESP]
		push	EBX
		call	near ptr ?error@Dsymbol@@QAAXULoc@@PBDZZ
		add	ESP,010h
L956:		pop	ESI
		pop	EBX
		pop	EAX
		ret	0Ch
		nop
		nop
		nop
		nop
?getModule@Dsymbol@@QAEPAUModule@@XZ:
		push	ECX
		test	ECX,ECX
		push	EBX
		mov	EBX,ECX
		push	ESI
		je	L986
L969:		mov	EDX,[EBX]
		mov	ECX,EBX
		call	dword ptr 0CCh[EDX]
		mov	ESI,EAX
		test	EAX,EAX
		je	L97F
		mov	EAX,ESI
		pop	ESI
		pop	EBX
		pop	ECX
		ret
L97F:		mov	EBX,0Ch[EBX]
		test	EBX,EBX
		jne	L969
L986:		pop	ESI
		xor	EAX,EAX
		pop	EBX
		pop	ECX
		ret
		nop
		nop
		nop
		nop
?prot@Dsymbol@@UAE?AW4PROT@@XZ:
		push	ECX
		mov	EAX,5
		pop	ECX
		ret
?arraySyntaxCopy@Dsymbol@@SAPAUArray@@PAU2@@Z:
		push	EBX
		push	ESI
		xor	ESI,ESI
		push	EDI
		cmp	010h[ESP],ESI
		je	L9D3
		xor	EBX,EBX
		mov	ECX,010h[ESP]
		call	near ptr ?copy@Array@@QAEPAU1@XZ
		mov	ESI,EAX
		cmp	4[EAX],EBX
		je	L9D3
L9B5:		mov	EDX,8[ESI]
		mov	EDI,[EBX*4][EDX]
		mov	EDX,[EDI]
		push	0
		mov	ECX,EDI
		call	dword ptr 0A0h[EDX]
		mov	ECX,8[ESI]
		mov	[EBX*4][ECX],EAX
		inc	EBX
		cmp	4[ESI],EBX
		ja	L9B5
L9D3:		pop	EDI
		mov	EAX,ESI
		pop	ESI
		pop	EBX
		ret
		nop
		nop
		nop
		nop
		nop
		nop
		nop
?addComment@Dsymbol@@UAEXPAE@Z:
		push	ECX
		push	EBX
		mov	EBX,ECX
		push	ESI
		mov	ESI,010h[ESP]
		cmp	dword ptr 018h[EBX],0
		jne	L9F4
		mov	018h[EBX],ESI
		jmp short	LA17
L9F4:		test	ESI,ESI
		je	LA17
		push	dword ptr 018h[EBX]
		push	ESI
		call	near ptr _strcmp
		add	ESP,8
		test	EAX,EAX
		je	LA17
		push	ESI
		push	dword ptr 018h[EBX]
		call	near ptr ?combineComments@Lexer@@SAPAEPAE0@Z
		mov	018h[EBX],EAX
		add	ESP,8
LA17:		pop	ESI
		pop	EBX
		pop	EAX
		ret	4
		nop
		nop
		nop
??0ScopeDsymbol@@QAE@XZ:
		push	EBX
		mov	EBX,ECX
		call	near ptr ??0Dsymbol@@QAE@XZ
		xor	EAX,EAX
		mov	028h[EBX],EAX
		mov	02Ch[EBX],EAX
		mov	030h[EBX],EAX
		mov	034h[EBX],EAX
		mov	EAX,EBX
		mov	dword ptr [EBX],offset FLAT:??_7ScopeDsymbol@@6B@
		pop	EBX
		ret
??0ScopeDsymbol@@QAE@PAUIdentifier@@@Z:
		push	EBX
		mov	EBX,ECX
		push	dword ptr 8[ESP]
		call	near ptr ??0Dsymbol@@QAE@PAUIdentifier@@@Z
		xor	EAX,EAX
		mov	028h[EBX],EAX
		mov	02Ch[EBX],EAX
		mov	030h[EBX],EAX
		mov	034h[EBX],EAX
		mov	EAX,EBX
		mov	dword ptr [EBX],offset FLAT:??_7ScopeDsymbol@@6B@
		pop	EBX
		ret	4
?syntaxCopy@ScopeDsymbol@@UAEPAUDsymbol@@PAU2@@Z:
		push	ECX
		push	EBX
		push	ESI
		cmp	dword ptr 010h[ESP],0
		je	LA76
		mov	EBX,010h[ESP]
		jmp short	LA98
LA76:		push	038h
		call	near ptr ??2@YAPAXI@Z
		add	ESP,4
		mov	ESI,EAX
		test	EAX,EAX
		je	LA96
		mov	ECX,8[ESP]
		push	dword ptr 4[ECX]
		mov	ECX,ESI
		call	near ptr ??0ScopeDsymbol@@QAE@PAUIdentifier@@@Z
		mov	ESI,EAX
LA96:		mov	EBX,ESI
LA98:		mov	EAX,8[ESP]
		push	dword ptr 028h[EAX]
		call	near ptr ?arraySyntaxCopy@Dsymbol@@SAPAUArray@@PAU2@@Z
		mov	028h[EBX],EAX
		add	ESP,4
		mov	EAX,EBX
		pop	ESI
		pop	EBX
		pop	ECX
		ret	4
?search@ScopeDsymbol@@UAEPAUDsymbol@@ULoc@@PAUIdentifier@@H@Z:
		sub	ESP,0Ch
		push	EBX
		push	EBP
		push	ESI
		push	EDI
		mov	018h[ESP],ECX
		mov	EAX,02Ch[ECX]
		test	EAX,EAX
		je	LAD5
		mov	ECX,EAX
		push	dword ptr 028h[ESP]
		call	near ptr ?lookup@DsymbolTable@@QAEPAUDsymbol@@PAUIdentifier@@@Z
		mov	EBX,EAX
		test	EAX,EAX
		jmp short	LAD7
LAD5:		xor	EBX,EBX
LAD7:		jne	LC61
		mov	EDX,018h[ESP]
		mov	ESI,030h[EDX]
		test	ESI,ESI
		je	LC61
		xor	EDI,EDI
		cmp	4[ESI],EDI
		je	LC17
		mov	ECX,02Ch[ESP]
		and	ECX,1
		mov	010h[ESP],ECX
LB05:		mov	EDX,018h[ESP]
		mov	ECX,030h[EDX]
		mov	ECX,8[ECX]
		cmp	dword ptr 010h[ESP],0
		mov	EBP,[EDI*4][ECX]
		je	LB26
		mov	EDX,034h[EDX]
		cmp	[EDI][EDX],2
		je	LC06
LB26:		mov	EDX,0[EBP]
		mov	ECX,EBP
		call	dword ptr 0CCh[EDX]
		cmp	EAX,1
		mov	EDX,0[EBP]
		sbb	ECX,ECX
		inc	ECX
		push	ECX
		mov	ECX,EBP
		push	dword ptr 02Ch[ESP]
		push	dword ptr 02Ch[ESP]
		push	dword ptr 02Ch[ESP]
		call	dword ptr 050h[EDX]
		mov	ESI,EAX
		test	EBX,EBX
		je	LB8C
		test	ESI,ESI
		je	LC06
		cmp	EBX,ESI
		je	LC06
		mov	EDX,[EBX]
		mov	ECX,EBX
		call	dword ptr 02Ch[EDX]
		mov	ECX,ESI
		push	EAX
		sub	ESP,4
		mov	EDX,[ESI]
		call	dword ptr 02Ch[EDX]
		add	ESP,4
		mov	ECX,EAX
		pop	EAX
		cmp	EAX,ECX
		jne	LB90
		mov	EDX,[EBX]
		mov	ECX,EBX
		call	dword ptr 084h[EDX]
		test	EAX,EAX
		je	LC06
LB8C:		mov	EBX,ESI
		jmp short	LC06
LB90:		mov	EDX,[EBX]
		mov	ECX,EBX
		call	dword ptr 0144h[EDX]
		mov	EDX,[ESI]
		mov	ECX,ESI
		mov	014h[ESP],EAX
		call	dword ptr 0144h[EDX]
		mov	EBP,EAX
		cmp	dword ptr 014h[ESP],0
		je	LBF2
		test	EBP,EBP
		je	LBF2
		mov	ECX,014h[ESP]
		mov	EDX,074h[ECX]
		cmp	EDX,074h[EBP]
		je	LC06
		mov	ECX,0Ch[ECX]
		mov	EDX,[ECX]
		call	dword ptr 0144h[EDX]
		test	EAX,EAX
		jne	LBF2
		mov	ECX,0Ch[EBP]
		mov	EDX,[ECX]
		call	dword ptr 0144h[EDX]
		test	EAX,EAX
		jne	LBF2
		push	dword ptr 4[EBP]
		mov	ECX,018h[ESP]
		mov	ECX,4[ECX]
		mov	EDX,[ECX]
		call	dword ptr 4[EDX]
		test	EAX,EAX
		jne	LC06
LBF2:		push	ESI
		push	EBX
		push	dword ptr 02Ch[ESP]
		push	dword ptr 02Ch[ESP]
		call	near ptr ?multiplyDefined@ScopeDsymbol@@SAXULoc@@PAUDsymbol@@1@Z
		add	ESP,010h
		jmp short	LC17
LC06:		mov	ECX,018h[ESP]
		mov	EDX,030h[ECX]
		inc	EDI
		cmp	4[EDX],EDI
		ja	LB05
LC17:		test	EBX,EBX
		je	LC61
		mov	EDX,[EBX]
		mov	ECX,EBX
		call	dword ptr 0E0h[EDX]
		mov	ESI,EAX
		test	EAX,EAX
		je	LC61
		cmp	dword ptr 038h[ESI],2
		jne	LC61
		mov	ECX,0Ch[ESI]
		mov	EDX,[ECX]
		call	dword ptr 0DCh[EDX]
		test	EAX,EAX
		jne	LC61
		mov	EDX,[ESI]
		mov	ECX,ESI
		call	dword ptr 024h[EDX]
		push	EAX
		push	offset FLAT:_DATA[0118h]
		push	dword ptr 02Ch[ESP]
		push	dword ptr 02Ch[ESP]
		push	dword ptr 028h[ESP]
		call	near ptr ?error@Dsymbol@@QAAXULoc@@PBDZZ
		add	ESP,014h
LC61:		pop	EDI
		mov	EAX,EBX
		pop	ESI
		pop	EBP
		pop	EBX
		add	ESP,0Ch
		ret	010h
		nop
		nop
		nop
?importScope@ScopeDsymbol@@QAEXPAU1@W4PROT@@@Z:
		push	EBX
		push	ESI
		mov	ESI,0Ch[ESP]
		push	EDI
		mov	EDI,ECX
		cmp	ESI,EDI
		je	LD06
		cmp	dword ptr 030h[EDI],0
		jne	LCA5
		push	014h
		call	near ptr ??2@YAPAXI@Z
		add	ESP,4
		mov	EBX,EAX
		test	EAX,EAX
		je	LCA0
		mov	ECX,EBX
		call	near ptr ??0Array@@QAE@XZ
		mov	EBX,EAX
LCA0:		mov	030h[EDI],EBX
		jmp short	LCD9
LCA5:		mov	EDX,030h[EDI]
		xor	EBX,EBX
		cmp	4[EDX],EBX
		je	LCD9
LCAF:		mov	ECX,030h[EDI]
		mov	EDX,8[ECX]
		cmp	[EBX*4][EDX],ESI
		jne	LCD3
		mov	ECX,034h[EDI]
		movzx	EDX,[EBX][ECX]
		cmp	EDX,014h[ESP]
		jge	LD06
		mov	ECX,034h[EDI]
		mov	DL,014h[ESP]
		mov	[EBX][ECX],DL
		jmp short	LD06
LCD3:		inc	EBX
		cmp	4[ECX],EBX
		ja	LCAF
LCD9:		push	ESI
		mov	ECX,030h[EDI]
		call	near ptr ?push@Array@@QAEXPAX@Z
		mov	EDX,030h[EDI]
		mov	ECX,offset FLAT:?mem@@3UMem@@A
		push	dword ptr 4[EDX]
		push	dword ptr 034h[EDI]
		call	near ptr ?realloc@Mem@@QAEPAXPAXI@Z
		mov	ECX,030h[EDI]
		mov	DL,014h[ESP]
		mov	034h[EDI],EAX
		mov	ECX,4[ECX]
		mov	-1[ECX][EAX],DL
LD06:		pop	EDI
		pop	ESI
		pop	EBX
		ret	8
		nop
		nop
		nop
		nop
?isforwardRef@ScopeDsymbol@@UAEHXZ:
		push	ECX
		mov	EAX,028h[ECX]
		neg	EAX
		sbb	EAX,EAX
		inc	EAX
		pop	ECX
		ret
		nop
		nop
		nop
		nop
		nop
?defineRef@ScopeDsymbol@@UAEXPAUDsymbol@@@Z:
		push	ECX
		push	ECX
		mov	ECX,0Ch[ESP]
		mov	EAX,[ECX]
		push	EBX
		call	dword ptr 0138h[EAX]
		mov	EBX,8[ESP]
		mov	EDX,028h[EAX]
		mov	028h[EBX],EDX
		mov	dword ptr 028h[EAX],0
		pop	EBX
		add	ESP,8
		ret	4
?multiplyDefined@ScopeDsymbol@@SAXULoc@@PAUDsymbol@@1@Z:
		push	EAX
		push	EBX
		mov	EBX,018h[ESP]
		push	ESI
		mov	ESI,018h[ESP]
		cmp	dword ptr 010h[ESP],0
		je	LD90
		mov	ECX,EBX
		call	near ptr ?locToChars@Dsymbol@@QAEPADXZ
		mov	EDX,[EBX]
		mov	ECX,EBX
		push	EAX
		call	dword ptr 024h[EDX]
		mov	ECX,ESI
		push	EAX
		call	near ptr ?locToChars@Dsymbol@@QAEPADXZ
		mov	EDX,[ESI]
		mov	ECX,ESI
		push	EAX
		call	dword ptr 024h[EDX]
		push	EAX
		push	offset FLAT:_DATA[0128h]
		push	dword ptr 028h[ESP]
		push	dword ptr 028h[ESP]
		call	near ptr ?error@@YAXULoc@@PBDZZ
		add	ESP,01Ch
		jmp short	LDBE
LD90:		mov	ECX,EBX
		call	near ptr ?locToChars@Dsymbol@@QAEPADXZ
		mov	EDX,[EBX]
		mov	ECX,EBX
		push	EAX
		call	dword ptr 024h[EDX]
		mov	EDX,[EBX]
		mov	ECX,EBX
		push	EAX
		call	dword ptr 028h[EDX]
		push	EAX
		push	offset FLAT:_DATA[014Ch]
		push	dword ptr 024h[ESP]
		push	dword ptr 024h[ESP]
		push	ESI
		call	near ptr ?error@Dsymbol@@QAAXULoc@@PBDZZ
		add	ESP,01Ch
LDBE:		pop	ESI
		pop	EBX
		pop	EAX
		ret
?nameCollision@ScopeDsymbol@@QAEPAUDsymbol@@PAU2@@Z:
		sub	ESP,0Ch
		mov	ECX,02Ch[ECX]
		push	EBX
		push	ESI
		mov	ESI,018h[ESP]
		push	dword ptr 4[ESI]
		call	near ptr ?lookup@DsymbolTable@@QAEPAUDsymbol@@PAUIdentifier@@@Z
		mov	EBX,EAX
		test	EAX,EAX
		jne	LDF0
		push	036Fh
		push	offset FLAT:_DATA[8]
		push	offset FLAT:_DATA[0168h]
		call	near ptr __assert
LDF0:		mov	EDX,[ESI]
		mov	ECX,ESI
		push	EBX
		call	dword ptr 4[EDX]
		test	EAX,EAX
		je	LE2E
		mov	EDX,[ESI]
		mov	ECX,ESI
		call	dword ptr 06Ch[EDX]
		test	EAX,EAX
		je	LE11
		pop	ESI
		mov	EAX,EBX
		pop	EBX
		add	ESP,0Ch
		ret	4
LE11:		mov	EDX,[EBX]
		mov	ECX,EBX
		call	dword ptr 06Ch[EDX]
		test	EAX,EAX
		je	LE2E
		push	ESI
		mov	EDX,[EBX]
		mov	ECX,EBX
		call	dword ptr 070h[EDX]
		mov	EAX,EBX
		pop	ESI
		pop	EBX
		add	ESP,0Ch
		ret	4
LE2E:		push	EBX
		push	ESI
		mov	dword ptr 014h[ESP],0
		mov	dword ptr 010h[ESP],0
		mov	EDX,014h[ESP]
		mov	EAX,010h[ESP]
		push	EDX
		push	EAX
		call	near ptr ?multiplyDefined@ScopeDsymbol@@SAXULoc@@PAUDsymbol@@1@Z
		add	ESP,010h
		mov	EAX,EBX
		pop	ESI
		pop	EBX
		add	ESP,0Ch
		ret	4
		nop
		nop
		nop
		nop
?kind@ScopeDsymbol@@UAEPBDXZ:
		push	ECX
		mov	EAX,offset FLAT:_DATA[0170h]
		pop	ECX
		ret
?symtabInsert@ScopeDsymbol@@UAEPAUDsymbol@@PAU2@@Z:
		push	ECX
		mov	ECX,02Ch[ECX]
		push	dword ptr 8[ESP]
		call	near ptr ?insert@DsymbolTable@@QAEPAUDsymbol@@PAU2@@Z
		pop	ECX
		ret	4
		nop
		nop
		nop
		nop
		nop
		nop
		nop
??0WithScopeSymbol@@QAE@PAUWithStatement@@@Z:
		push	EBX
		mov	EBX,ECX
		call	near ptr ??0ScopeDsymbol@@QAE@XZ
		mov	EAX,8[ESP]
		mov	038h[EBX],EAX
		mov	EAX,EBX
		mov	dword ptr [EBX],offset FLAT:??_7WithScopeSymbol@@6B@
		pop	EBX
		ret	4
		nop
		nop
		nop
		nop
		nop
?search@WithScopeSymbol@@UAEPAUDsymbol@@ULoc@@PAUIdentifier@@H@Z:
		push	ECX
		mov	EAX,038h[ECX]
		mov	EDX,010h[EAX]
		push	ECX
		mov	ECX,010h[EDX]
		push	EBX
		mov	EBX,[ECX]
		push	0
		push	dword ptr 01Ch[ESP]
		push	dword ptr 01Ch[ESP]
		push	dword ptr 01Ch[ESP]
		push	0
		call	dword ptr 06Ch[EBX]
		mov	ECX,EAX
		mov	EAX,[EAX]
		call	dword ptr 050h[EAX]
		pop	EBX
		add	ESP,8
		ret	010h
		nop
??0ArrayScopeSymbol@@QAE@PAUExpression@@@Z:
		push	EBX
		mov	EBX,ECX
		call	near ptr ??0ScopeDsymbol@@QAE@XZ
		mov	EAX,8[ESP]
		mov	dword ptr [EBX],offset FLAT:??_7ArrayScopeSymbol@@6B@
		mov	ECX,0Ch[EAX]
		cmp	ECX,03Ah
		je	LF03
		cmp	ECX,01Fh
		je	LF03
		push	03FFh
		push	offset FLAT:_DATA[8]
		push	offset FLAT:_DATA[0180h]
		call	near ptr __assert
LF03:		xor	EDX,EDX
		mov	038h[EBX],EAX
		mov	EAX,EBX
		mov	03Ch[EBX],EDX
		mov	040h[EBX],EDX
		pop	EBX
		ret	4
??0ArrayScopeSymbol@@QAE@PAUTypeTuple@@@Z:
		push	EBX
		mov	EBX,ECX
		call	near ptr ??0ScopeDsymbol@@QAE@XZ
		xor	EAX,EAX
		mov	ECX,8[ESP]
		mov	038h[EBX],EAX
		mov	040h[EBX],EAX
		mov	EAX,EBX
		mov	dword ptr [EBX],offset FLAT:??_7ArrayScopeSymbol@@6B@
		mov	03Ch[EBX],ECX
		pop	EBX
		ret	4
??0ArrayScopeSymbol@@QAE@PAUTupleDeclaration@@@Z:
		push	EBX
		mov	EBX,ECX
		call	near ptr ??0ScopeDsymbol@@QAE@XZ
		xor	EAX,EAX
		mov	ECX,8[ESP]
		mov	038h[EBX],EAX
		mov	03Ch[EBX],EAX
		mov	EAX,EBX
		mov	dword ptr [EBX],offset FLAT:??_7ArrayScopeSymbol@@6B@
		mov	040h[EBX],ECX
		pop	EBX
		ret	4
		nop
		nop
		nop
		nop
		nop
		nop
?search@ArrayScopeSymbol@@UAEPAUDsymbol@@ULoc@@PAUIdentifier@@H@Z:
		sub	ESP,088h
		mov	EDX,ECX
		push	EBX
		push	ESI
		push	EDI
		mov	EAX,0A0h[ESP]
		mov	090h[ESP],ECX
		cmp	EAX,?length@Id@@2PAUIdentifier@@A
		je	LF8D
		cmp	EAX,?dollar@Id@@2PAUIdentifier@@A
		jne	L13FA
LF8D:		cmp	dword ptr 040h[EDX],0
		je	L1072
LF97:		mov	090h[ESP],EDX
		push	078h
		call	near ptr ??2@YAPAXI@Z
		add	ESP,4
		mov	EBX,EAX
		test	EAX,EAX
		je	LFDA
		mov	EDX,?Tsize_t@@3HA
		push	0
		mov	ECX,EBX
		push	dword ptr ?dollar@Id@@2PAUIdentifier@@A
		push	dword ptr ?basic@Type@@2QAPAU1@A[EDX*4]
		push	dword ptr 0A8h[ESP]
		push	dword ptr 0A8h[ESP]
		call	near ptr ??0VarDeclaration@@QAE@ULoc@@PAUType@@PAUIdentifier@@PAUInitializer@@@Z
		mov	EBX,EAX
LFDA:		push	020h
		call	near ptr ??2@YAPAXI@Z
		add	ESP,4
		mov	ESI,EAX
		test	EAX,EAX
		je	L1026
		mov	EDX,?Tsize_t@@3HA
		push	dword ptr ?basic@Type@@2QAPAU1@A[EDX*4]
		mov	ECX,094h[ESP]
		mov	EDX,040h[ECX]
		mov	ECX,048h[EDX]
		xor	EDX,EDX
		push	EDX
		mov	EAX,4[ECX]
		mov	ECX,ESI
		push	EAX
		mov	020h[ESP],EDX
		mov	01Ch[ESP],EDX
		mov	EDX,020h[ESP]
		mov	EAX,01Ch[ESP]
		push	EDX
		push	EAX
		call	near ptr ??0IntegerExp@@QAE@ULoc@@_KPAUType@@@Z
		mov	ESI,EAX
L1026:		push	010h
		call	near ptr ??2@YAPAXI@Z
		add	ESP,4
		mov	EDI,EAX
		test	EAX,EAX
		je	L105A
		mov	ECX,EDI
		push	ESI
		mov	dword ptr 020h[ESP],0
		mov	dword ptr 01Ch[ESP],0
		mov	EDX,020h[ESP]
		mov	EAX,01Ch[ESP]
		push	EDX
		push	EAX
		call	near ptr ??0ExpInitializer@@QAE@ULoc@@PAUExpression@@@Z
		mov	EDI,EAX
L105A:		mov	EAX,EBX
		mov	048h[EBX],EDI
		or	dword ptr 030h[EBX],4
		pop	EDI
		pop	ESI
		pop	EBX
		add	ESP,088h
		ret	010h
L1072:		cmp	dword ptr 03Ch[EDX],0
		je	L1157
		mov	090h[ESP],EDX
		push	078h
		call	near ptr ??2@YAPAXI@Z
		add	ESP,4
		mov	EBX,EAX
		test	EAX,EAX
		je	L10BF
		mov	ECX,?Tsize_t@@3HA
		push	0
		push	dword ptr ?dollar@Id@@2PAUIdentifier@@A
		push	dword ptr ?basic@Type@@2QAPAU1@A[ECX*4]
		mov	ECX,EBX
		push	dword ptr 0A8h[ESP]
		push	dword ptr 0A8h[ESP]
		call	near ptr ??0VarDeclaration@@QAE@ULoc@@PAUType@@PAUIdentifier@@PAUInitializer@@@Z
		mov	EBX,EAX
L10BF:		push	020h
		call	near ptr ??2@YAPAXI@Z
		add	ESP,4
		mov	ESI,EAX
		test	EAX,EAX
		je	L110B
		mov	EDX,?Tsize_t@@3HA
		push	dword ptr ?basic@Type@@2QAPAU1@A[EDX*4]
		mov	ECX,094h[ESP]
		mov	EDX,03Ch[ECX]
		mov	ECX,028h[EDX]
		xor	EDX,EDX
		push	EDX
		mov	EAX,4[ECX]
		mov	ECX,ESI
		push	EAX
		mov	030h[ESP],EDX
		mov	02Ch[ESP],EDX
		mov	EDX,030h[ESP]
		mov	EAX,02Ch[ESP]
		push	EDX
		push	EAX
		call	near ptr ??0IntegerExp@@QAE@ULoc@@_KPAUType@@@Z
		mov	ESI,EAX
L110B:		push	010h
		call	near ptr ??2@YAPAXI@Z
		add	ESP,4
		mov	EDI,EAX
		test	EAX,EAX
		je	L113F
		mov	ECX,EDI
		push	ESI
		mov	dword ptr 030h[ESP],0
		mov	dword ptr 02Ch[ESP],0
		mov	EDX,030h[ESP]
		mov	EAX,02Ch[ESP]
		push	EDX
		push	EAX
		call	near ptr ??0ExpInitializer@@QAE@ULoc@@PAUExpression@@@Z
		mov	EDI,EAX
L113F:		mov	EAX,EBX
		mov	048h[EBX],EDI
		or	dword ptr 030h[EBX],4
		pop	EDI
		pop	ESI
		pop	EBX
		add	ESP,088h
		ret	010h
L1157:		mov	ECX,038h[EDX]
		mov	EBX,0Ch[ECX]
		cmp	EBX,03Ah
		jne	L116D
		mov	ECX,038h[EDX]
		lea	ESI,020h[ECX]
		mov	EBX,018h[ECX]
		jmp short	L117F
L116D:		cmp	EBX,01Fh
		jne	L13FA
		mov	ECX,038h[EDX]
		lea	ESI,024h[ECX]
		mov	EBX,018h[ECX]
L117F:		cmp	dword ptr 0Ch[EBX],014h
		jne	L11A0
		mov	ECX,010h[EBX]
		cmp	dword ptr 4[ECX],027h
		jne	L11A0
		mov	03Ch[EDX],ECX
		cmp	dword ptr 040h[EDX],0
		jne	LF97
		jmp	near ptr L1072
L11A0:		cmp	dword ptr [ESI],0
		jne	L13EC
		push	078h
		call	near ptr ??2@YAPAXI@Z
		add	ESP,4
		mov	EDI,EAX
		test	EAX,EAX
		je	L11E5
		mov	EDX,?Tsize_t@@3HA
		push	0
		mov	ECX,EDI
		push	dword ptr ?dollar@Id@@2PAUIdentifier@@A
		push	dword ptr ?basic@Type@@2QAPAU1@A[EDX*4]
		push	dword ptr 0A8h[ESP]
		push	dword ptr 0A8h[ESP]
		call	near ptr ??0VarDeclaration@@QAE@ULoc@@PAUType@@PAUIdentifier@@PAUInitializer@@@Z
		mov	EDI,EAX
L11E5:		mov	EDX,0Ch[EBX]
		cmp	EDX,07Ah
		jne	L1286
		push	020h
		call	near ptr ??2@YAPAXI@Z
		add	ESP,4
		test	EAX,EAX
		mov	030h[ESP],EAX
		je	L1236
		mov	ECX,?Tsize_t@@3HA
		push	dword ptr ?basic@Type@@2QAPAU1@A[ECX*4]
		xor	EDX,EDX
		mov	EAX,01Ch[EBX]
		push	EDX
		mov	ECX,038h[ESP]
		push	EAX
		mov	048h[ESP],EDX
		mov	044h[ESP],EDX
		mov	EDX,048h[ESP]
		mov	EAX,044h[ESP]
		push	EDX
		push	EAX
		call	near ptr ??0IntegerExp@@QAE@ULoc@@_KPAUType@@@Z
		mov	030h[ESP],EAX
L1236:		push	010h
		call	near ptr ??2@YAPAXI@Z
		add	ESP,4
		test	EAX,EAX
		mov	040h[ESP],EAX
		je	L1273
		push	dword ptr 030h[ESP]
		mov	ECX,044h[ESP]
		mov	dword ptr 050h[ESP],0
		mov	dword ptr 04Ch[ESP],0
		mov	EDX,050h[ESP]
		mov	EAX,04Ch[ESP]
		push	EDX
		push	EAX
		call	near ptr ??0ExpInitializer@@QAE@ULoc@@PAUExpression@@@Z
		mov	040h[ESP],EAX
L1273:		mov	EDX,040h[ESP]
		mov	048h[EDI],EDX
		or	dword ptr 030h[EDI],4
		jmp	near ptr L13EA
L1286:		cmp	EDX,02Fh
		jne	L1327
		push	020h
		call	near ptr ??2@YAPAXI@Z
		add	ESP,4
		test	EAX,EAX
		mov	050h[ESP],EAX
		je	L12D7
		mov	ECX,?Tsize_t@@3HA
		push	dword ptr ?basic@Type@@2QAPAU1@A[ECX*4]
		mov	EDX,018h[EBX]
		xor	ECX,ECX
		push	ECX
		mov	EAX,4[EDX]
		push	EAX
		mov	068h[ESP],ECX
		mov	EDX,068h[ESP]
		mov	064h[ESP],ECX
		mov	EAX,064h[ESP]
		mov	ECX,05Ch[ESP]
		push	EDX
		push	EAX
		call	near ptr ??0IntegerExp@@QAE@ULoc@@_KPAUType@@@Z
		mov	050h[ESP],EAX
L12D7:		push	010h
		call	near ptr ??2@YAPAXI@Z
		add	ESP,4
		test	EAX,EAX
		mov	060h[ESP],EAX
		je	L1314
		push	dword ptr 050h[ESP]
		mov	ECX,064h[ESP]
		mov	dword ptr 070h[ESP],0
		mov	dword ptr 06Ch[ESP],0
		mov	EDX,070h[ESP]
		mov	EAX,06Ch[ESP]
		push	EDX
		push	EAX
		call	near ptr ??0ExpInitializer@@QAE@ULoc@@PAUExpression@@@Z
		mov	060h[ESP],EAX
L1314:		mov	EDX,060h[ESP]
		mov	048h[EDI],EDX
		or	dword ptr 030h[EDI],4
		jmp	near ptr L13EA
L1327:		cmp	EDX,07Eh
		jne	L13EA
		push	020h
		call	near ptr ??2@YAPAXI@Z
		add	ESP,4
		test	EAX,EAX
		mov	070h[ESP],EAX
		je	L1387
		mov	ECX,?Tsize_t@@3HA
		push	dword ptr ?basic@Type@@2QAPAU1@A[ECX*4]
		mov	EDX,018h[EBX]
		xor	ECX,ECX
		push	ECX
		mov	EAX,4[EDX]
		push	EAX
		mov	088h[ESP],ECX
		mov	EDX,088h[ESP]
		mov	084h[ESP],ECX
		mov	EAX,084h[ESP]
		push	EDX
		push	EAX
		mov	ECX,084h[ESP]
		call	near ptr ??0IntegerExp@@QAE@ULoc@@_KPAUType@@@Z
		mov	070h[ESP],EAX
L1387:		push	010h
		call	near ptr ??2@YAPAXI@Z
		add	ESP,4
		test	EAX,EAX
		mov	080h[ESP],EAX
		je	L13D9
		push	dword ptr 070h[ESP]
		mov	dword ptr 090h[ESP],0
		mov	dword ptr 08Ch[ESP],0
		mov	EDX,090h[ESP]
		mov	EAX,08Ch[ESP]
		push	EDX
		push	EAX
		mov	ECX,08Ch[ESP]
		call	near ptr ??0ExpInitializer@@QAE@ULoc@@PAUExpression@@@Z
		mov	080h[ESP],EAX
L13D9:		mov	EDX,080h[ESP]
		mov	048h[EDI],EDX
		or	dword ptr 030h[EDI],4
L13EA:		mov	[ESI],EDI
L13EC:		mov	EAX,[ESI]
		pop	EDI
		pop	ESI
		pop	EBX
		add	ESP,088h
		ret	010h
L13FA:		pop	EDI
		xor	EAX,EAX
		pop	ESI
		pop	EBX
		add	ESP,088h
		ret	010h
??0DsymbolTable@@QAE@XZ:
		mov	dword ptr [ECX],offset FLAT:??_7Object@@6B@
		mov	EAX,ECX
		mov	dword ptr [EAX],offset FLAT:??_7DsymbolTable@@6B@
		mov	dword ptr 4[EAX],0
		ret
		nop
		nop
??1DsymbolTable@@UAE@XZ:
		mov	dword ptr [ECX],offset FLAT:??_7DsymbolTable@@6B@
		push	ECX
		mov	dword ptr [ECX],offset FLAT:??_7Object@@6B@
		pop	EAX
		ret
		nop
?lookup@DsymbolTable@@QAEPAUDsymbol@@PAUIdentifier@@@Z:
		push	ECX
		push	dword ptr 8[ESP]
		push	dword ptr 4[ECX]
		call	near ptr ?_aaGetRvalue@@YAPAXPAUAA@@PAX@Z
		add	ESP,8
		pop	ECX
		ret	4
?insert@DsymbolTable@@QAEPAUDsymbol@@PAU2@@Z:
		push	ECX
		mov	EAX,8[ESP]
		add	ECX,4
		push	dword ptr 4[EAX]
		push	ECX
		call	near ptr ?_aaGet@@YAPAPAXPAPAUAA@@PAX@Z
		add	ESP,8
		cmp	dword ptr [EAX],0
		je	L1463
		pop	ECX
		xor	EAX,EAX
		ret	4
L1463:		mov	EDX,8[ESP]
		mov	[EAX],EDX
		mov	EAX,EDX
		pop	ECX
		ret	4
		nop
?insert@DsymbolTable@@QAEPAUDsymbol@@PAUIdentifier@@PAU2@@Z:
		push	ECX
		add	ECX,4
		push	dword ptr 8[ESP]
		push	ECX
		call	near ptr ?_aaGet@@YAPAPAXPAPAUAA@@PAX@Z
		add	ESP,8
		cmp	dword ptr [EAX],0
		je	L148C
		pop	ECX
		xor	EAX,EAX
		ret	8
L148C:		mov	ECX,0Ch[ESP]
		mov	[EAX],ECX
		mov	EAX,ECX
		pop	ECX
		ret	8
?update@DsymbolTable@@QAEPAUDsymbol@@PAU2@@Z:
		push	ECX
		push	ECX
		add	ECX,4
		push	EBX
		mov	EBX,010h[ESP]
		push	dword ptr 4[EBX]
		push	ECX
		call	near ptr ?_aaGet@@YAPAPAXPAPAUAA@@PAX@Z
		mov	[EAX],EBX
		add	ESP,8
		mov	EAX,EBX
		pop	EBX
		add	ESP,8
		ret	4
_TEXT	ends
_DATA	segment
D0	db	025h,073h,020h,025h,073h,00ah,000h,000h
D8	db	064h,073h,079h,06dh,062h,06fh,06ch,02eh
	db	063h,000h,000h,000h
D14	db	030h,000h,000h,000h
D18	db	02ah,070h,073h,020h,03dh,03dh,020h,04eh
	db	055h,04ch,04ch,000h
D24	db	05fh,05fh,061h,06eh
	db	06fh,06eh,079h,06dh,06fh,075h,073h,000h
D30	db	073h,079h,06dh,062h,06fh,06ch,000h,000h
D38	db	025h,070h,020h,068h,061h,073h,020h,06eh
	db	06fh,020h,073h,065h,06dh,061h,06eh,074h
	db	069h,063h,020h,072h,06fh,075h,074h,069h
	db	06eh,065h,000h,000h
D54	db	074h,065h,06dh,070h
	db	06ch,061h,074h,065h,020h,069h,064h,065h
	db	06eh,074h,069h,066h,069h,065h,072h,020h
	db	025h,073h,020h,069h,073h,020h,06eh,06fh
	db	074h,020h,061h,020h,06dh,065h,06dh,062h
	db	065h,072h,020h,06fh,066h,020h,025h,073h
	db	020h,025h,073h,000h
D84	db	025h,073h,020h,069h
	db	073h,020h,06eh,06fh,074h,020h,061h,020h
	db	074h,065h,06dh,070h,06ch,061h,074h,065h
	db	02ch,020h,069h,074h,020h,069h,073h,020h
	db	061h,020h,025h,073h,000h,000h,000h,000h
DA8	db	044h,073h,079h,06dh,062h,06fh,06ch,020h
	db	027h,025h,073h,027h,020h,068h,061h,073h
	db	020h,06eh,06fh,020h,073h,069h,07ah,065h
	db	00ah,000h,000h,000h
DC4	db	02eh,025h,073h,020h
	db	070h,072h,06fh,070h,065h,072h,074h,079h
	db	020h,063h,061h,06eh,06eh,06fh,074h,020h
	db	062h,065h,020h,072h,065h,064h,065h,066h
	db	069h,06eh,065h,064h,000h,000h,000h,000h
DE8	db	025h,073h,03ah,020h,000h,000h,000h,000h
DF0	db	045h,072h,072h,06fh,072h,03ah,020h,000h
DF8	db	025h,073h,020h,000h
DFC	db	025h,073h,020h,025h
	db	073h,020h,000h,000h
D104	db	00ah,000h,000h,000h
D108	db	069h,073h,020h,064h,065h,070h,072h,065h
	db	063h,061h,074h,065h,064h,000h,000h,000h
D118	db	025h,073h,020h,069h,073h,020h,070h,072h
	db	069h,076h,061h,074h,065h,000h,000h,000h
D128	db	025h,073h,020h,061h,074h,020h,025h,073h
	db	020h,063h,06fh,06eh,066h,06ch,069h,063h
	db	074h,073h,020h,077h,069h,074h,068h,020h
	db	025h,073h,020h,061h,074h,020h,025h,073h
	db	000h,000h,000h,000h
D14C	db	063h,06fh,06eh,066h
	db	06ch,069h,063h,074h,073h,020h,077h,069h
	db	074h,068h,020h,025h,073h,020h,025h,073h
	db	020h,061h,074h,020h,025h,073h,000h,000h
D168	db	073h,070h,072h,065h,076h,000h,000h,000h
D170	db	053h,063h,06fh,070h,065h,044h,073h,079h
	db	06dh,062h,06fh,06ch,000h,000h,000h,000h
D180	db	065h,02dh,03eh,06fh,070h,020h,03dh,03dh
	db	020h,054h,04fh,04bh,069h,06eh,064h,065h
	db	078h,020h,07ch,07ch,020h,065h,02dh,03eh
	db	06fh,070h,020h,03dh,03dh,020h,054h,04fh
	db	04bh,073h,06ch,069h,063h,065h,000h
_DATA	ends
CONST	segment
CONST	ends
_BSS	segment
_BSS	ends
??_7Object@@6B@	comdat
	dd	offset FLAT:??_GObject@@UAEPAXI@Z
	dd	offset FLAT:?equals@Object@@UAEHPAU1@@Z
	dd	offset FLAT:?hashCode@Object@@UAEIXZ
	dd	offset FLAT:?compare@Object@@UAEHPAU1@@Z
	dd	offset FLAT:?print@Object@@UAEXXZ
	dd	offset FLAT:?toChars@Object@@UAEPADXZ
	dd	offset FLAT:?toDchars@Object@@UAEPADXZ
	dd	offset FLAT:?toBuffer@Object@@UAEXPAUOutBuffer@@@Z
	dd	offset FLAT:?dyncast@Object@@UAEHXZ
??_7Object@@6B@	ends
??_7Dsymbol@@6B@	comdat
	dd	offset FLAT:??_GDsymbol@@UAEPAXI@Z
	dd	offset FLAT:?equals@Dsymbol@@UAEHPAUObject@@@Z
	dd	offset FLAT:?hashCode@Object@@UAEIXZ
	dd	offset FLAT:?compare@Object@@UAEHPAU1@@Z
	dd	offset FLAT:?print@Object@@UAEXXZ
	dd	offset FLAT:?toChars@Dsymbol@@UAEPADXZ
	dd	offset FLAT:?toDchars@Object@@UAEPADXZ
	dd	offset FLAT:?toBuffer@Object@@UAEXPAUOutBuffer@@@Z
	dd	offset FLAT:?dyncast@Dsymbol@@UAEHXZ
	dd	offset FLAT:?toPrettyChars@Dsymbol@@UAEPBDXZ
	dd	offset FLAT:?kind@Dsymbol@@UAEPBDXZ
	dd	offset FLAT:?toAlias@Dsymbol@@UAEPAU1@XZ
	dd	offset FLAT:?addMember@Dsymbol@@UAEHPAUScope@@PAUScopeDsymbol@@H@Z
	dd	offset FLAT:?setScope@Dsymbol@@UAEXPAUScope@@@Z
	dd	offset FLAT:?importAll@Dsymbol@@UAEXPAUScope@@@Z
	dd	offset FLAT:?semantic0@Dsymbol@@UAEXPAUScope@@@Z
	dd	offset FLAT:?semantic@Dsymbol@@UAEXPAUScope@@@Z
	dd	offset FLAT:?semantic2@Dsymbol@@UAEXPAUScope@@@Z
	dd	offset FLAT:?semantic3@Dsymbol@@UAEXPAUScope@@@Z
	dd	offset FLAT:?inlineScan@Dsymbol@@UAEXXZ
	dd	offset FLAT:?search@Dsymbol@@UAEPAU1@ULoc@@PAUIdentifier@@H@Z
	dd	offset FLAT:?overloadInsert@Dsymbol@@UAEHPAU1@@Z
	dd	offset FLAT:?toHBuffer@Dsymbol@@UAEXPAUOutBuffer@@PAUHdrGenState@@@Z
	dd	offset FLAT:?toCBuffer@Dsymbol@@UAEXPAUOutBuffer@@PAUHdrGenState@@@Z
	dd	offset FLAT:?toDocBuffer@Dsymbol@@UAEXPAUOutBuffer@@@Z
	dd	offset FLAT:?toJsonBuffer@Dsymbol@@UAEXPAUOutBuffer@@@Z
	dd	offset FLAT:?size@Dsymbol@@UAEIULoc@@@Z
	dd	offset FLAT:?isforwardRef@Dsymbol@@UAEHXZ
	dd	offset FLAT:?defineRef@Dsymbol@@UAEXPAU1@@Z
	dd	offset FLAT:?isThis@Dsymbol@@UAEPAUAggregateDeclaration@@XZ
	dd	offset FLAT:?isClassMember@Dsymbol@@UAEPAUClassDeclaration@@XZ
	dd	offset FLAT:?isExport@Dsymbol@@UAEHXZ
	dd	offset FLAT:?isImportedSymbol@Dsymbol@@UAEHXZ
	dd	offset FLAT:?isDeprecated@Dsymbol@@UAEHXZ
	dd	offset FLAT:?isLabel@Dsymbol@@UAEPAULabelDsymbol@@XZ
	dd	offset FLAT:?isMember@Dsymbol@@UAEPAUAggregateDeclaration@@XZ
	dd	offset FLAT:?getType@Dsymbol@@UAEPAUType@@XZ
	dd	offset FLAT:?mangle@Dsymbol@@UAEPADXZ
	dd	offset FLAT:?needThis@Dsymbol@@UAEHXZ
	dd	offset FLAT:?prot@Dsymbol@@UAE?AW4PROT@@XZ
	dd	offset FLAT:?syntaxCopy@Dsymbol@@UAEPAU1@PAU1@@Z
	dd	offset FLAT:?oneMember@Dsymbol@@UAEHPAPAU1@@Z
	dd	offset FLAT:?hasPointers@Dsymbol@@UAEHXZ
	dd	offset FLAT:?addLocalClass@Dsymbol@@UAEXPAUClassDeclarations@@@Z
	dd	offset FLAT:?checkCtorConstInit@Dsymbol@@UAEXXZ
	dd	offset FLAT:?addComment@Dsymbol@@UAEXPAE@Z
	dd	offset FLAT:?emitComment@Dsymbol@@UAEXPAUScope@@@Z
	dd	offset FLAT:?toSymbol@Dsymbol@@UAEPAUSymbol@@XZ
	dd	offset FLAT:?toObjFile@Dsymbol@@UAEXH@Z
	dd	offset FLAT:?cvMember@Dsymbol@@UAEHPAE@Z
	dd	offset FLAT:?isPackage@Dsymbol@@UAEPAUPackage@@XZ
	dd	offset FLAT:?isModule@Dsymbol@@UAEPAUModule@@XZ
	dd	offset FLAT:?isEnumMember@Dsymbol@@UAEPAUEnumMember@@XZ
	dd	offset FLAT:?isTemplateDeclaration@Dsymbol@@UAEPAUTemplateDeclaration@@XZ
	dd	offset FLAT:?isTemplateInstance@Dsymbol@@UAEPAUTemplateInstance@@XZ
	dd	offset FLAT:?isTemplateMixin@Dsymbol@@UAEPAUTemplateMixin@@XZ
	dd	offset FLAT:?isDeclaration@Dsymbol@@UAEPAUDeclaration@@XZ
	dd	offset FLAT:?isThisDeclaration@Dsymbol@@UAEPAUThisDeclaration@@XZ
	dd	offset FLAT:?isTupleDeclaration@Dsymbol@@UAEPAUTupleDeclaration@@XZ
	dd	offset FLAT:?isTypedefDeclaration@Dsymbol@@UAEPAUTypedefDeclaration@@XZ
	dd	offset FLAT:?isAliasDeclaration@Dsymbol@@UAEPAUAliasDeclaration@@XZ
	dd	offset FLAT:?isAggregateDeclaration@Dsymbol@@UAEPAUAggregateDeclaration@@XZ
	dd	offset FLAT:?isFuncDeclaration@Dsymbol@@UAEPAUFuncDeclaration@@XZ
	dd	offset FLAT:?isFuncAliasDeclaration@Dsymbol@@UAEPAUFuncAliasDeclaration@@XZ
	dd	offset FLAT:?isFuncLiteralDeclaration@Dsymbol@@UAEPAUFuncLiteralDeclaration@@XZ
	dd	offset FLAT:?isCtorDeclaration@Dsymbol@@UAEPAUCtorDeclaration@@XZ
	dd	offset FLAT:?isPostBlitDeclaration@Dsymbol@@UAEPAUPostBlitDeclaration@@XZ
	dd	offset FLAT:?isDtorDeclaration@Dsymbol@@UAEPAUDtorDeclaration@@XZ
	dd	offset FLAT:?isStaticCtorDeclaration@Dsymbol@@UAEPAUStaticCtorDeclaration@@XZ
	dd	offset FLAT:?isStaticDtorDeclaration@Dsymbol@@UAEPAUStaticDtorDeclaration@@XZ
	dd	offset FLAT:?isInvariantDeclaration@Dsymbol@@UAEPAUInvariantDeclaration@@XZ
	dd	offset FLAT:?isUnitTestDeclaration@Dsymbol@@UAEPAUUnitTestDeclaration@@XZ
	dd	offset FLAT:?isNewDeclaration@Dsymbol@@UAEPAUNewDeclaration@@XZ
	dd	offset FLAT:?isVarDeclaration@Dsymbol@@UAEPAUVarDeclaration@@XZ
	dd	offset FLAT:?isClassDeclaration@Dsymbol@@UAEPAUClassDeclaration@@XZ
	dd	offset FLAT:?isStructDeclaration@Dsymbol@@UAEPAUStructDeclaration@@XZ
	dd	offset FLAT:?isUnionDeclaration@Dsymbol@@UAEPAUUnionDeclaration@@XZ
	dd	offset FLAT:?isInterfaceDeclaration@Dsymbol@@UAEPAUInterfaceDeclaration@@XZ
	dd	offset FLAT:?isScopeDsymbol@Dsymbol@@UAEPAUScopeDsymbol@@XZ
	dd	offset FLAT:?isWithScopeSymbol@Dsymbol@@UAEPAUWithScopeSymbol@@XZ
	dd	offset FLAT:?isArrayScopeSymbol@Dsymbol@@UAEPAUArrayScopeSymbol@@XZ
	dd	offset FLAT:?isImport@Dsymbol@@UAEPAUImport@@XZ
	dd	offset FLAT:?isEnumDeclaration@Dsymbol@@UAEPAUEnumDeclaration@@XZ
	dd	offset FLAT:?isDeleteDeclaration@Dsymbol@@UAEPAUDeleteDeclaration@@XZ
	dd	offset FLAT:?isSymbolDeclaration@Dsymbol@@UAEPAUSymbolDeclaration@@XZ
	dd	offset FLAT:?isAttribDeclaration@Dsymbol@@UAEPAUAttribDeclaration@@XZ
	dd	offset FLAT:?isOverloadSet@Dsymbol@@UAEPAUOverloadSet@@XZ
??_7Dsymbol@@6B@	ends
??_GObject@@UAEPAXI@Z	comdat
	assume	CS:??_GObject@@UAEPAXI@Z
L0:		push	EBX
		mov	EBX,ECX
		test	ECX,ECX
		je	L20
		mov	dword ptr [EBX],offset FLAT:??_7Object@@6B@
		test	dword ptr 8[ESP],1
		je	L20
		push	EBX
		call	near ptr ??3@YAXPAX@Z
		add	ESP,4
L20:		mov	EAX,EBX
		pop	EBX
		ret	4
??_GObject@@UAEPAXI@Z	ends
??_GDsymbol@@UAEPAXI@Z	comdat
	assume	CS:??_GDsymbol@@UAEPAXI@Z
L0:		push	EBX
		mov	EBX,ECX
		test	ECX,ECX
		je	L26
		mov	dword ptr [EBX],offset FLAT:??_7Dsymbol@@6B@
		mov	dword ptr [EBX],offset FLAT:??_7Object@@6B@
		test	dword ptr 8[ESP],1
		je	L26
		push	EBX
		call	near ptr ??3@YAXPAX@Z
		add	ESP,4
L26:		mov	EAX,EBX
		pop	EBX
		ret	4
??_GDsymbol@@UAEPAXI@Z	ends
?dyncast@Dsymbol@@UAEHXZ	comdat
	assume	CS:?dyncast@Dsymbol@@UAEHXZ
		push	ECX
		mov	EAX,2
		pop	ECX
		ret
?dyncast@Dsymbol@@UAEHXZ	ends
?addLocalClass@Dsymbol@@UAEXPAUClassDeclarations@@@Z	comdat
	assume	CS:?addLocalClass@Dsymbol@@UAEXPAUClassDeclarations@@@Z
		push	ECX
		pop	EAX
		ret	4
?addLocalClass@Dsymbol@@UAEXPAUClassDeclarations@@@Z	ends
?checkCtorConstInit@Dsymbol@@UAEXXZ	comdat
	assume	CS:?checkCtorConstInit@Dsymbol@@UAEXXZ
		push	ECX
		pop	EAX
		ret
?checkCtorConstInit@Dsymbol@@UAEXXZ	ends
?isPackage@Dsymbol@@UAEPAUPackage@@XZ	comdat
	assume	CS:?isPackage@Dsymbol@@UAEPAUPackage@@XZ
		push	ECX
		xor	EAX,EAX
		pop	ECX
		ret
?isPackage@Dsymbol@@UAEPAUPackage@@XZ	ends
?isModule@Dsymbol@@UAEPAUModule@@XZ	comdat
	assume	CS:?isModule@Dsymbol@@UAEPAUModule@@XZ
		push	ECX
		xor	EAX,EAX
		pop	ECX
		ret
?isModule@Dsymbol@@UAEPAUModule@@XZ	ends
?isEnumMember@Dsymbol@@UAEPAUEnumMember@@XZ	comdat
	assume	CS:?isEnumMember@Dsymbol@@UAEPAUEnumMember@@XZ
		push	ECX
		xor	EAX,EAX
		pop	ECX
		ret
?isEnumMember@Dsymbol@@UAEPAUEnumMember@@XZ	ends
?isTemplateDeclaration@Dsymbol@@UAEPAUTemplateDeclaration@@XZ	comdat
	assume	CS:?isTemplateDeclaration@Dsymbol@@UAEPAUTemplateDeclaration@@XZ
		push	ECX
		xor	EAX,EAX
		pop	ECX
		ret
?isTemplateDeclaration@Dsymbol@@UAEPAUTemplateDeclaration@@XZ	ends
?isTemplateInstance@Dsymbol@@UAEPAUTemplateInstance@@XZ	comdat
	assume	CS:?isTemplateInstance@Dsymbol@@UAEPAUTemplateInstance@@XZ
		push	ECX
		xor	EAX,EAX
		pop	ECX
		ret
?isTemplateInstance@Dsymbol@@UAEPAUTemplateInstance@@XZ	ends
?isTemplateMixin@Dsymbol@@UAEPAUTemplateMixin@@XZ	comdat
	assume	CS:?isTemplateMixin@Dsymbol@@UAEPAUTemplateMixin@@XZ
		push	ECX
		xor	EAX,EAX
		pop	ECX
		ret
?isTemplateMixin@Dsymbol@@UAEPAUTemplateMixin@@XZ	ends
?isDeclaration@Dsymbol@@UAEPAUDeclaration@@XZ	comdat
	assume	CS:?isDeclaration@Dsymbol@@UAEPAUDeclaration@@XZ
		push	ECX
		xor	EAX,EAX
		pop	ECX
		ret
?isDeclaration@Dsymbol@@UAEPAUDeclaration@@XZ	ends
?isThisDeclaration@Dsymbol@@UAEPAUThisDeclaration@@XZ	comdat
	assume	CS:?isThisDeclaration@Dsymbol@@UAEPAUThisDeclaration@@XZ
		push	ECX
		xor	EAX,EAX
		pop	ECX
		ret
?isThisDeclaration@Dsymbol@@UAEPAUThisDeclaration@@XZ	ends
?isTupleDeclaration@Dsymbol@@UAEPAUTupleDeclaration@@XZ	comdat
	assume	CS:?isTupleDeclaration@Dsymbol@@UAEPAUTupleDeclaration@@XZ
		push	ECX
		xor	EAX,EAX
		pop	ECX
		ret
?isTupleDeclaration@Dsymbol@@UAEPAUTupleDeclaration@@XZ	ends
?isTypedefDeclaration@Dsymbol@@UAEPAUTypedefDeclaration@@XZ	comdat
	assume	CS:?isTypedefDeclaration@Dsymbol@@UAEPAUTypedefDeclaration@@XZ
		push	ECX
		xor	EAX,EAX
		pop	ECX
		ret
?isTypedefDeclaration@Dsymbol@@UAEPAUTypedefDeclaration@@XZ	ends
?isAliasDeclaration@Dsymbol@@UAEPAUAliasDeclaration@@XZ	comdat
	assume	CS:?isAliasDeclaration@Dsymbol@@UAEPAUAliasDeclaration@@XZ
		push	ECX
		xor	EAX,EAX
		pop	ECX
		ret
?isAliasDeclaration@Dsymbol@@UAEPAUAliasDeclaration@@XZ	ends
?isAggregateDeclaration@Dsymbol@@UAEPAUAggregateDeclaration@@XZ	comdat
	assume	CS:?isAggregateDeclaration@Dsymbol@@UAEPAUAggregateDeclaration@@XZ
		push	ECX
		xor	EAX,EAX
		pop	ECX
		ret
?isAggregateDeclaration@Dsymbol@@UAEPAUAggregateDeclaration@@XZ	ends
?isFuncDeclaration@Dsymbol@@UAEPAUFuncDeclaration@@XZ	comdat
	assume	CS:?isFuncDeclaration@Dsymbol@@UAEPAUFuncDeclaration@@XZ
		push	ECX
		xor	EAX,EAX
		pop	ECX
		ret
?isFuncDeclaration@Dsymbol@@UAEPAUFuncDeclaration@@XZ	ends
?isFuncAliasDeclaration@Dsymbol@@UAEPAUFuncAliasDeclaration@@XZ	comdat
	assume	CS:?isFuncAliasDeclaration@Dsymbol@@UAEPAUFuncAliasDeclaration@@XZ
		push	ECX
		xor	EAX,EAX
		pop	ECX
		ret
?isFuncAliasDeclaration@Dsymbol@@UAEPAUFuncAliasDeclaration@@XZ	ends
?isFuncLiteralDeclaration@Dsymbol@@UAEPAUFuncLiteralDeclaration@@XZ	comdat
	assume	CS:?isFuncLiteralDeclaration@Dsymbol@@UAEPAUFuncLiteralDeclaration@@XZ
		push	ECX
		xor	EAX,EAX
		pop	ECX
		ret
?isFuncLiteralDeclaration@Dsymbol@@UAEPAUFuncLiteralDeclaration@@XZ	ends
?isCtorDeclaration@Dsymbol@@UAEPAUCtorDeclaration@@XZ	comdat
	assume	CS:?isCtorDeclaration@Dsymbol@@UAEPAUCtorDeclaration@@XZ
		push	ECX
		xor	EAX,EAX
		pop	ECX
		ret
?isCtorDeclaration@Dsymbol@@UAEPAUCtorDeclaration@@XZ	ends
?isPostBlitDeclaration@Dsymbol@@UAEPAUPostBlitDeclaration@@XZ	comdat
	assume	CS:?isPostBlitDeclaration@Dsymbol@@UAEPAUPostBlitDeclaration@@XZ
		push	ECX
		xor	EAX,EAX
		pop	ECX
		ret
?isPostBlitDeclaration@Dsymbol@@UAEPAUPostBlitDeclaration@@XZ	ends
?isDtorDeclaration@Dsymbol@@UAEPAUDtorDeclaration@@XZ	comdat
	assume	CS:?isDtorDeclaration@Dsymbol@@UAEPAUDtorDeclaration@@XZ
		push	ECX
		xor	EAX,EAX
		pop	ECX
		ret
?isDtorDeclaration@Dsymbol@@UAEPAUDtorDeclaration@@XZ	ends
?isStaticCtorDeclaration@Dsymbol@@UAEPAUStaticCtorDeclaration@@XZ	comdat
	assume	CS:?isStaticCtorDeclaration@Dsymbol@@UAEPAUStaticCtorDeclaration@@XZ
		push	ECX
		xor	EAX,EAX
		pop	ECX
		ret
?isStaticCtorDeclaration@Dsymbol@@UAEPAUStaticCtorDeclaration@@XZ	ends
?isStaticDtorDeclaration@Dsymbol@@UAEPAUStaticDtorDeclaration@@XZ	comdat
	assume	CS:?isStaticDtorDeclaration@Dsymbol@@UAEPAUStaticDtorDeclaration@@XZ
		push	ECX
		xor	EAX,EAX
		pop	ECX
		ret
?isStaticDtorDeclaration@Dsymbol@@UAEPAUStaticDtorDeclaration@@XZ	ends
?isInvariantDeclaration@Dsymbol@@UAEPAUInvariantDeclaration@@XZ	comdat
	assume	CS:?isInvariantDeclaration@Dsymbol@@UAEPAUInvariantDeclaration@@XZ
		push	ECX
		xor	EAX,EAX
		pop	ECX
		ret
?isInvariantDeclaration@Dsymbol@@UAEPAUInvariantDeclaration@@XZ	ends
?isUnitTestDeclaration@Dsymbol@@UAEPAUUnitTestDeclaration@@XZ	comdat
	assume	CS:?isUnitTestDeclaration@Dsymbol@@UAEPAUUnitTestDeclaration@@XZ
		push	ECX
		xor	EAX,EAX
		pop	ECX
		ret
?isUnitTestDeclaration@Dsymbol@@UAEPAUUnitTestDeclaration@@XZ	ends
?isNewDeclaration@Dsymbol@@UAEPAUNewDeclaration@@XZ	comdat
	assume	CS:?isNewDeclaration@Dsymbol@@UAEPAUNewDeclaration@@XZ
		push	ECX
		xor	EAX,EAX
		pop	ECX
		ret
?isNewDeclaration@Dsymbol@@UAEPAUNewDeclaration@@XZ	ends
?isVarDeclaration@Dsymbol@@UAEPAUVarDeclaration@@XZ	comdat
	assume	CS:?isVarDeclaration@Dsymbol@@UAEPAUVarDeclaration@@XZ
		push	ECX
		xor	EAX,EAX
		pop	ECX
		ret
?isVarDeclaration@Dsymbol@@UAEPAUVarDeclaration@@XZ	ends
?isClassDeclaration@Dsymbol@@UAEPAUClassDeclaration@@XZ	comdat
	assume	CS:?isClassDeclaration@Dsymbol@@UAEPAUClassDeclaration@@XZ
		push	ECX
		xor	EAX,EAX
		pop	ECX
		ret
?isClassDeclaration@Dsymbol@@UAEPAUClassDeclaration@@XZ	ends
?isStructDeclaration@Dsymbol@@UAEPAUStructDeclaration@@XZ	comdat
	assume	CS:?isStructDeclaration@Dsymbol@@UAEPAUStructDeclaration@@XZ
		push	ECX
		xor	EAX,EAX
		pop	ECX
		ret
?isStructDeclaration@Dsymbol@@UAEPAUStructDeclaration@@XZ	ends
?isUnionDeclaration@Dsymbol@@UAEPAUUnionDeclaration@@XZ	comdat
	assume	CS:?isUnionDeclaration@Dsymbol@@UAEPAUUnionDeclaration@@XZ
		push	ECX
		xor	EAX,EAX
		pop	ECX
		ret
?isUnionDeclaration@Dsymbol@@UAEPAUUnionDeclaration@@XZ	ends
?isInterfaceDeclaration@Dsymbol@@UAEPAUInterfaceDeclaration@@XZ	comdat
	assume	CS:?isInterfaceDeclaration@Dsymbol@@UAEPAUInterfaceDeclaration@@XZ
		push	ECX
		xor	EAX,EAX
		pop	ECX
		ret
?isInterfaceDeclaration@Dsymbol@@UAEPAUInterfaceDeclaration@@XZ	ends
?isScopeDsymbol@Dsymbol@@UAEPAUScopeDsymbol@@XZ	comdat
	assume	CS:?isScopeDsymbol@Dsymbol@@UAEPAUScopeDsymbol@@XZ
		push	ECX
		xor	EAX,EAX
		pop	ECX
		ret
?isScopeDsymbol@Dsymbol@@UAEPAUScopeDsymbol@@XZ	ends
?isWithScopeSymbol@Dsymbol@@UAEPAUWithScopeSymbol@@XZ	comdat
	assume	CS:?isWithScopeSymbol@Dsymbol@@UAEPAUWithScopeSymbol@@XZ
		push	ECX
		xor	EAX,EAX
		pop	ECX
		ret
?isWithScopeSymbol@Dsymbol@@UAEPAUWithScopeSymbol@@XZ	ends
?isArrayScopeSymbol@Dsymbol@@UAEPAUArrayScopeSymbol@@XZ	comdat
	assume	CS:?isArrayScopeSymbol@Dsymbol@@UAEPAUArrayScopeSymbol@@XZ
		push	ECX
		xor	EAX,EAX
		pop	ECX
		ret
?isArrayScopeSymbol@Dsymbol@@UAEPAUArrayScopeSymbol@@XZ	ends
?isImport@Dsymbol@@UAEPAUImport@@XZ	comdat
	assume	CS:?isImport@Dsymbol@@UAEPAUImport@@XZ
		push	ECX
		xor	EAX,EAX
		pop	ECX
		ret
?isImport@Dsymbol@@UAEPAUImport@@XZ	ends
?isEnumDeclaration@Dsymbol@@UAEPAUEnumDeclaration@@XZ	comdat
	assume	CS:?isEnumDeclaration@Dsymbol@@UAEPAUEnumDeclaration@@XZ
		push	ECX
		xor	EAX,EAX
		pop	ECX
		ret
?isEnumDeclaration@Dsymbol@@UAEPAUEnumDeclaration@@XZ	ends
?isDeleteDeclaration@Dsymbol@@UAEPAUDeleteDeclaration@@XZ	comdat
	assume	CS:?isDeleteDeclaration@Dsymbol@@UAEPAUDeleteDeclaration@@XZ
		push	ECX
		xor	EAX,EAX
		pop	ECX
		ret
?isDeleteDeclaration@Dsymbol@@UAEPAUDeleteDeclaration@@XZ	ends
?isSymbolDeclaration@Dsymbol@@UAEPAUSymbolDeclaration@@XZ	comdat
	assume	CS:?isSymbolDeclaration@Dsymbol@@UAEPAUSymbolDeclaration@@XZ
		push	ECX
		xor	EAX,EAX
		pop	ECX
		ret
?isSymbolDeclaration@Dsymbol@@UAEPAUSymbolDeclaration@@XZ	ends
?isAttribDeclaration@Dsymbol@@UAEPAUAttribDeclaration@@XZ	comdat
	assume	CS:?isAttribDeclaration@Dsymbol@@UAEPAUAttribDeclaration@@XZ
		push	ECX
		xor	EAX,EAX
		pop	ECX
		ret
?isAttribDeclaration@Dsymbol@@UAEPAUAttribDeclaration@@XZ	ends
?isOverloadSet@Dsymbol@@UAEPAUOverloadSet@@XZ	comdat
	assume	CS:?isOverloadSet@Dsymbol@@UAEPAUOverloadSet@@XZ
		push	ECX
		xor	EAX,EAX
		pop	ECX
		ret
?isOverloadSet@Dsymbol@@UAEPAUOverloadSet@@XZ	ends
??_7Identifier@@6B@	comdat
	dd	offset FLAT:??_GIdentifier@@UAEPAXI@Z
	dd	offset FLAT:?equals@Identifier@@UAEHPAUObject@@@Z
	dd	offset FLAT:?hashCode@Identifier@@UAEIXZ
	dd	offset FLAT:?compare@Identifier@@UAEHPAUObject@@@Z
	dd	offset FLAT:?print@Identifier@@UAEXXZ
	dd	offset FLAT:?toChars@Identifier@@UAEPADXZ
	dd	offset FLAT:?toDchars@Object@@UAEPADXZ
	dd	offset FLAT:?toBuffer@Object@@UAEXPAUOutBuffer@@@Z
	dd	offset FLAT:?dyncast@Identifier@@UAEHXZ
??_7Identifier@@6B@	ends
??_GIdentifier@@UAEPAXI@Z	comdat
	assume	CS:??_GIdentifier@@UAEPAXI@Z
L0:		push	EBX
		mov	EBX,ECX
		test	ECX,ECX
		je	L26
		mov	dword ptr [EBX],offset FLAT:??_7Identifier@@6B@
		mov	dword ptr [EBX],offset FLAT:??_7Object@@6B@
		test	dword ptr 8[ESP],1
		je	L26
		push	EBX
		call	near ptr ??3@YAXPAX@Z
		add	ESP,4
L26:		mov	EAX,EBX
		pop	EBX
		ret	4
??_GIdentifier@@UAEPAXI@Z	ends
??_7ScopeDsymbol@@6B@	comdat
	dd	offset FLAT:??_GScopeDsymbol@@UAEPAXI@Z
	dd	offset FLAT:?equals@Dsymbol@@UAEHPAUObject@@@Z
	dd	offset FLAT:?hashCode@Object@@UAEIXZ
	dd	offset FLAT:?compare@Object@@UAEHPAU1@@Z
	dd	offset FLAT:?print@Object@@UAEXXZ
	dd	offset FLAT:?toChars@Dsymbol@@UAEPADXZ
	dd	offset FLAT:?toDchars@Object@@UAEPADXZ
	dd	offset FLAT:?toBuffer@Object@@UAEXPAUOutBuffer@@@Z
	dd	offset FLAT:?dyncast@Dsymbol@@UAEHXZ
	dd	offset FLAT:?toPrettyChars@Dsymbol@@UAEPBDXZ
	dd	offset FLAT:?kind@ScopeDsymbol@@UAEPBDXZ
	dd	offset FLAT:?toAlias@Dsymbol@@UAEPAU1@XZ
	dd	offset FLAT:?addMember@Dsymbol@@UAEHPAUScope@@PAUScopeDsymbol@@H@Z
	dd	offset FLAT:?setScope@Dsymbol@@UAEXPAUScope@@@Z
	dd	offset FLAT:?importAll@Dsymbol@@UAEXPAUScope@@@Z
	dd	offset FLAT:?semantic0@Dsymbol@@UAEXPAUScope@@@Z
	dd	offset FLAT:?semantic@Dsymbol@@UAEXPAUScope@@@Z
	dd	offset FLAT:?semantic2@Dsymbol@@UAEXPAUScope@@@Z
	dd	offset FLAT:?semantic3@Dsymbol@@UAEXPAUScope@@@Z
	dd	offset FLAT:?inlineScan@Dsymbol@@UAEXXZ
	dd	offset FLAT:?search@ScopeDsymbol@@UAEPAUDsymbol@@ULoc@@PAUIdentifier@@H@Z
	dd	offset FLAT:?overloadInsert@Dsymbol@@UAEHPAU1@@Z
	dd	offset FLAT:?toHBuffer@Dsymbol@@UAEXPAUOutBuffer@@PAUHdrGenState@@@Z
	dd	offset FLAT:?toCBuffer@Dsymbol@@UAEXPAUOutBuffer@@PAUHdrGenState@@@Z
	dd	offset FLAT:?toDocBuffer@Dsymbol@@UAEXPAUOutBuffer@@@Z
	dd	offset FLAT:?toJsonBuffer@Dsymbol@@UAEXPAUOutBuffer@@@Z
	dd	offset FLAT:?size@Dsymbol@@UAEIULoc@@@Z
	dd	offset FLAT:?isforwardRef@ScopeDsymbol@@UAEHXZ
	dd	offset FLAT:?defineRef@ScopeDsymbol@@UAEXPAUDsymbol@@@Z
	dd	offset FLAT:?isThis@Dsymbol@@UAEPAUAggregateDeclaration@@XZ
	dd	offset FLAT:?isClassMember@Dsymbol@@UAEPAUClassDeclaration@@XZ
	dd	offset FLAT:?isExport@Dsymbol@@UAEHXZ
	dd	offset FLAT:?isImportedSymbol@Dsymbol@@UAEHXZ
	dd	offset FLAT:?isDeprecated@Dsymbol@@UAEHXZ
	dd	offset FLAT:?isLabel@Dsymbol@@UAEPAULabelDsymbol@@XZ
	dd	offset FLAT:?isMember@Dsymbol@@UAEPAUAggregateDeclaration@@XZ
	dd	offset FLAT:?getType@Dsymbol@@UAEPAUType@@XZ
	dd	offset FLAT:?mangle@Dsymbol@@UAEPADXZ
	dd	offset FLAT:?needThis@Dsymbol@@UAEHXZ
	dd	offset FLAT:?prot@Dsymbol@@UAE?AW4PROT@@XZ
	dd	offset FLAT:?syntaxCopy@ScopeDsymbol@@UAEPAUDsymbol@@PAU2@@Z
	dd	offset FLAT:?oneMember@Dsymbol@@UAEHPAPAU1@@Z
	dd	offset FLAT:?hasPointers@Dsymbol@@UAEHXZ
	dd	offset FLAT:?addLocalClass@Dsymbol@@UAEXPAUClassDeclarations@@@Z
	dd	offset FLAT:?checkCtorConstInit@Dsymbol@@UAEXXZ
	dd	offset FLAT:?addComment@Dsymbol@@UAEXPAE@Z
	dd	offset FLAT:?emitComment@Dsymbol@@UAEXPAUScope@@@Z
	dd	offset FLAT:?toSymbol@Dsymbol@@UAEPAUSymbol@@XZ
	dd	offset FLAT:?toObjFile@Dsymbol@@UAEXH@Z
	dd	offset FLAT:?cvMember@Dsymbol@@UAEHPAE@Z
	dd	offset FLAT:?isPackage@Dsymbol@@UAEPAUPackage@@XZ
	dd	offset FLAT:?isModule@Dsymbol@@UAEPAUModule@@XZ
	dd	offset FLAT:?isEnumMember@Dsymbol@@UAEPAUEnumMember@@XZ
	dd	offset FLAT:?isTemplateDeclaration@Dsymbol@@UAEPAUTemplateDeclaration@@XZ
	dd	offset FLAT:?isTemplateInstance@Dsymbol@@UAEPAUTemplateInstance@@XZ
	dd	offset FLAT:?isTemplateMixin@Dsymbol@@UAEPAUTemplateMixin@@XZ
	dd	offset FLAT:?isDeclaration@Dsymbol@@UAEPAUDeclaration@@XZ
	dd	offset FLAT:?isThisDeclaration@Dsymbol@@UAEPAUThisDeclaration@@XZ
	dd	offset FLAT:?isTupleDeclaration@Dsymbol@@UAEPAUTupleDeclaration@@XZ
	dd	offset FLAT:?isTypedefDeclaration@Dsymbol@@UAEPAUTypedefDeclaration@@XZ
	dd	offset FLAT:?isAliasDeclaration@Dsymbol@@UAEPAUAliasDeclaration@@XZ
	dd	offset FLAT:?isAggregateDeclaration@Dsymbol@@UAEPAUAggregateDeclaration@@XZ
	dd	offset FLAT:?isFuncDeclaration@Dsymbol@@UAEPAUFuncDeclaration@@XZ
	dd	offset FLAT:?isFuncAliasDeclaration@Dsymbol@@UAEPAUFuncAliasDeclaration@@XZ
	dd	offset FLAT:?isFuncLiteralDeclaration@Dsymbol@@UAEPAUFuncLiteralDeclaration@@XZ
	dd	offset FLAT:?isCtorDeclaration@Dsymbol@@UAEPAUCtorDeclaration@@XZ
	dd	offset FLAT:?isPostBlitDeclaration@Dsymbol@@UAEPAUPostBlitDeclaration@@XZ
	dd	offset FLAT:?isDtorDeclaration@Dsymbol@@UAEPAUDtorDeclaration@@XZ
	dd	offset FLAT:?isStaticCtorDeclaration@Dsymbol@@UAEPAUStaticCtorDeclaration@@XZ
	dd	offset FLAT:?isStaticDtorDeclaration@Dsymbol@@UAEPAUStaticDtorDeclaration@@XZ
	dd	offset FLAT:?isInvariantDeclaration@Dsymbol@@UAEPAUInvariantDeclaration@@XZ
	dd	offset FLAT:?isUnitTestDeclaration@Dsymbol@@UAEPAUUnitTestDeclaration@@XZ
	dd	offset FLAT:?isNewDeclaration@Dsymbol@@UAEPAUNewDeclaration@@XZ
	dd	offset FLAT:?isVarDeclaration@Dsymbol@@UAEPAUVarDeclaration@@XZ
	dd	offset FLAT:?isClassDeclaration@Dsymbol@@UAEPAUClassDeclaration@@XZ
	dd	offset FLAT:?isStructDeclaration@Dsymbol@@UAEPAUStructDeclaration@@XZ
	dd	offset FLAT:?isUnionDeclaration@Dsymbol@@UAEPAUUnionDeclaration@@XZ
	dd	offset FLAT:?isInterfaceDeclaration@Dsymbol@@UAEPAUInterfaceDeclaration@@XZ
	dd	offset FLAT:?isScopeDsymbol@ScopeDsymbol@@UAEPAU1@XZ
	dd	offset FLAT:?isWithScopeSymbol@Dsymbol@@UAEPAUWithScopeSymbol@@XZ
	dd	offset FLAT:?isArrayScopeSymbol@Dsymbol@@UAEPAUArrayScopeSymbol@@XZ
	dd	offset FLAT:?isImport@Dsymbol@@UAEPAUImport@@XZ
	dd	offset FLAT:?isEnumDeclaration@Dsymbol@@UAEPAUEnumDeclaration@@XZ
	dd	offset FLAT:?isDeleteDeclaration@Dsymbol@@UAEPAUDeleteDeclaration@@XZ
	dd	offset FLAT:?isSymbolDeclaration@Dsymbol@@UAEPAUSymbolDeclaration@@XZ
	dd	offset FLAT:?isAttribDeclaration@Dsymbol@@UAEPAUAttribDeclaration@@XZ
	dd	offset FLAT:?isOverloadSet@Dsymbol@@UAEPAUOverloadSet@@XZ
	dd	offset FLAT:?symtabInsert@ScopeDsymbol@@UAEPAUDsymbol@@PAU2@@Z
??_7ScopeDsymbol@@6B@	ends
??_GScopeDsymbol@@UAEPAXI@Z	comdat
	assume	CS:??_GScopeDsymbol@@UAEPAXI@Z
L0:		push	EBX
		mov	EBX,ECX
		test	ECX,ECX
		je	L2C
		mov	dword ptr [EBX],offset FLAT:??_7ScopeDsymbol@@6B@
		mov	dword ptr [EBX],offset FLAT:??_7Dsymbol@@6B@
		mov	dword ptr [EBX],offset FLAT:??_7Object@@6B@
		test	dword ptr 8[ESP],1
		je	L2C
		push	EBX
		call	near ptr ??3@YAXPAX@Z
		add	ESP,4
L2C:		mov	EAX,EBX
		pop	EBX
		ret	4
??_GScopeDsymbol@@UAEPAXI@Z	ends
?isScopeDsymbol@ScopeDsymbol@@UAEPAU1@XZ	comdat
	assume	CS:?isScopeDsymbol@ScopeDsymbol@@UAEPAU1@XZ
		push	ECX
		mov	EAX,ECX
		pop	ECX
		ret
?isScopeDsymbol@ScopeDsymbol@@UAEPAU1@XZ	ends
??_7WithScopeSymbol@@6B@	comdat
	dd	offset FLAT:??_GWithScopeSymbol@@UAEPAXI@Z
	dd	offset FLAT:?equals@Dsymbol@@UAEHPAUObject@@@Z
	dd	offset FLAT:?hashCode@Object@@UAEIXZ
	dd	offset FLAT:?compare@Object@@UAEHPAU1@@Z
	dd	offset FLAT:?print@Object@@UAEXXZ
	dd	offset FLAT:?toChars@Dsymbol@@UAEPADXZ
	dd	offset FLAT:?toDchars@Object@@UAEPADXZ
	dd	offset FLAT:?toBuffer@Object@@UAEXPAUOutBuffer@@@Z
	dd	offset FLAT:?dyncast@Dsymbol@@UAEHXZ
	dd	offset FLAT:?toPrettyChars@Dsymbol@@UAEPBDXZ
	dd	offset FLAT:?kind@ScopeDsymbol@@UAEPBDXZ
	dd	offset FLAT:?toAlias@Dsymbol@@UAEPAU1@XZ
	dd	offset FLAT:?addMember@Dsymbol@@UAEHPAUScope@@PAUScopeDsymbol@@H@Z
	dd	offset FLAT:?setScope@Dsymbol@@UAEXPAUScope@@@Z
	dd	offset FLAT:?importAll@Dsymbol@@UAEXPAUScope@@@Z
	dd	offset FLAT:?semantic0@Dsymbol@@UAEXPAUScope@@@Z
	dd	offset FLAT:?semantic@Dsymbol@@UAEXPAUScope@@@Z
	dd	offset FLAT:?semantic2@Dsymbol@@UAEXPAUScope@@@Z
	dd	offset FLAT:?semantic3@Dsymbol@@UAEXPAUScope@@@Z
	dd	offset FLAT:?inlineScan@Dsymbol@@UAEXXZ
	dd	offset FLAT:?search@WithScopeSymbol@@UAEPAUDsymbol@@ULoc@@PAUIdentifier@@H@Z
	dd	offset FLAT:?overloadInsert@Dsymbol@@UAEHPAU1@@Z
	dd	offset FLAT:?toHBuffer@Dsymbol@@UAEXPAUOutBuffer@@PAUHdrGenState@@@Z
	dd	offset FLAT:?toCBuffer@Dsymbol@@UAEXPAUOutBuffer@@PAUHdrGenState@@@Z
	dd	offset FLAT:?toDocBuffer@Dsymbol@@UAEXPAUOutBuffer@@@Z
	dd	offset FLAT:?toJsonBuffer@Dsymbol@@UAEXPAUOutBuffer@@@Z
	dd	offset FLAT:?size@Dsymbol@@UAEIULoc@@@Z
	dd	offset FLAT:?isforwardRef@ScopeDsymbol@@UAEHXZ
	dd	offset FLAT:?defineRef@ScopeDsymbol@@UAEXPAUDsymbol@@@Z
	dd	offset FLAT:?isThis@Dsymbol@@UAEPAUAggregateDeclaration@@XZ
	dd	offset FLAT:?isClassMember@Dsymbol@@UAEPAUClassDeclaration@@XZ
	dd	offset FLAT:?isExport@Dsymbol@@UAEHXZ
	dd	offset FLAT:?isImportedSymbol@Dsymbol@@UAEHXZ
	dd	offset FLAT:?isDeprecated@Dsymbol@@UAEHXZ
	dd	offset FLAT:?isLabel@Dsymbol@@UAEPAULabelDsymbol@@XZ
	dd	offset FLAT:?isMember@Dsymbol@@UAEPAUAggregateDeclaration@@XZ
	dd	offset FLAT:?getType@Dsymbol@@UAEPAUType@@XZ
	dd	offset FLAT:?mangle@Dsymbol@@UAEPADXZ
	dd	offset FLAT:?needThis@Dsymbol@@UAEHXZ
	dd	offset FLAT:?prot@Dsymbol@@UAE?AW4PROT@@XZ
	dd	offset FLAT:?syntaxCopy@ScopeDsymbol@@UAEPAUDsymbol@@PAU2@@Z
	dd	offset FLAT:?oneMember@Dsymbol@@UAEHPAPAU1@@Z
	dd	offset FLAT:?hasPointers@Dsymbol@@UAEHXZ
	dd	offset FLAT:?addLocalClass@Dsymbol@@UAEXPAUClassDeclarations@@@Z
	dd	offset FLAT:?checkCtorConstInit@Dsymbol@@UAEXXZ
	dd	offset FLAT:?addComment@Dsymbol@@UAEXPAE@Z
	dd	offset FLAT:?emitComment@Dsymbol@@UAEXPAUScope@@@Z
	dd	offset FLAT:?toSymbol@Dsymbol@@UAEPAUSymbol@@XZ
	dd	offset FLAT:?toObjFile@Dsymbol@@UAEXH@Z
	dd	offset FLAT:?cvMember@Dsymbol@@UAEHPAE@Z
	dd	offset FLAT:?isPackage@Dsymbol@@UAEPAUPackage@@XZ
	dd	offset FLAT:?isModule@Dsymbol@@UAEPAUModule@@XZ
	dd	offset FLAT:?isEnumMember@Dsymbol@@UAEPAUEnumMember@@XZ
	dd	offset FLAT:?isTemplateDeclaration@Dsymbol@@UAEPAUTemplateDeclaration@@XZ
	dd	offset FLAT:?isTemplateInstance@Dsymbol@@UAEPAUTemplateInstance@@XZ
	dd	offset FLAT:?isTemplateMixin@Dsymbol@@UAEPAUTemplateMixin@@XZ
	dd	offset FLAT:?isDeclaration@Dsymbol@@UAEPAUDeclaration@@XZ
	dd	offset FLAT:?isThisDeclaration@Dsymbol@@UAEPAUThisDeclaration@@XZ
	dd	offset FLAT:?isTupleDeclaration@Dsymbol@@UAEPAUTupleDeclaration@@XZ
	dd	offset FLAT:?isTypedefDeclaration@Dsymbol@@UAEPAUTypedefDeclaration@@XZ
	dd	offset FLAT:?isAliasDeclaration@Dsymbol@@UAEPAUAliasDeclaration@@XZ
	dd	offset FLAT:?isAggregateDeclaration@Dsymbol@@UAEPAUAggregateDeclaration@@XZ
	dd	offset FLAT:?isFuncDeclaration@Dsymbol@@UAEPAUFuncDeclaration@@XZ
	dd	offset FLAT:?isFuncAliasDeclaration@Dsymbol@@UAEPAUFuncAliasDeclaration@@XZ
	dd	offset FLAT:?isFuncLiteralDeclaration@Dsymbol@@UAEPAUFuncLiteralDeclaration@@XZ
	dd	offset FLAT:?isCtorDeclaration@Dsymbol@@UAEPAUCtorDeclaration@@XZ
	dd	offset FLAT:?isPostBlitDeclaration@Dsymbol@@UAEPAUPostBlitDeclaration@@XZ
	dd	offset FLAT:?isDtorDeclaration@Dsymbol@@UAEPAUDtorDeclaration@@XZ
	dd	offset FLAT:?isStaticCtorDeclaration@Dsymbol@@UAEPAUStaticCtorDeclaration@@XZ
	dd	offset FLAT:?isStaticDtorDeclaration@Dsymbol@@UAEPAUStaticDtorDeclaration@@XZ
	dd	offset FLAT:?isInvariantDeclaration@Dsymbol@@UAEPAUInvariantDeclaration@@XZ
	dd	offset FLAT:?isUnitTestDeclaration@Dsymbol@@UAEPAUUnitTestDeclaration@@XZ
	dd	offset FLAT:?isNewDeclaration@Dsymbol@@UAEPAUNewDeclaration@@XZ
	dd	offset FLAT:?isVarDeclaration@Dsymbol@@UAEPAUVarDeclaration@@XZ
	dd	offset FLAT:?isClassDeclaration@Dsymbol@@UAEPAUClassDeclaration@@XZ
	dd	offset FLAT:?isStructDeclaration@Dsymbol@@UAEPAUStructDeclaration@@XZ
	dd	offset FLAT:?isUnionDeclaration@Dsymbol@@UAEPAUUnionDeclaration@@XZ
	dd	offset FLAT:?isInterfaceDeclaration@Dsymbol@@UAEPAUInterfaceDeclaration@@XZ
	dd	offset FLAT:?isScopeDsymbol@ScopeDsymbol@@UAEPAU1@XZ
	dd	offset FLAT:?isWithScopeSymbol@WithScopeSymbol@@UAEPAU1@XZ
	dd	offset FLAT:?isArrayScopeSymbol@Dsymbol@@UAEPAUArrayScopeSymbol@@XZ
	dd	offset FLAT:?isImport@Dsymbol@@UAEPAUImport@@XZ
	dd	offset FLAT:?isEnumDeclaration@Dsymbol@@UAEPAUEnumDeclaration@@XZ
	dd	offset FLAT:?isDeleteDeclaration@Dsymbol@@UAEPAUDeleteDeclaration@@XZ
	dd	offset FLAT:?isSymbolDeclaration@Dsymbol@@UAEPAUSymbolDeclaration@@XZ
	dd	offset FLAT:?isAttribDeclaration@Dsymbol@@UAEPAUAttribDeclaration@@XZ
	dd	offset FLAT:?isOverloadSet@Dsymbol@@UAEPAUOverloadSet@@XZ
	dd	offset FLAT:?symtabInsert@ScopeDsymbol@@UAEPAUDsymbol@@PAU2@@Z
??_7WithScopeSymbol@@6B@	ends
??_GWithScopeSymbol@@UAEPAXI@Z	comdat
	assume	CS:??_GWithScopeSymbol@@UAEPAXI@Z
L0:		push	EBX
		mov	EBX,ECX
		test	ECX,ECX
		je	L32
		mov	dword ptr [EBX],offset FLAT:??_7WithScopeSymbol@@6B@
		mov	dword ptr [EBX],offset FLAT:??_7ScopeDsymbol@@6B@
		mov	dword ptr [EBX],offset FLAT:??_7Dsymbol@@6B@
		mov	dword ptr [EBX],offset FLAT:??_7Object@@6B@
		test	dword ptr 8[ESP],1
		je	L32
		push	EBX
		call	near ptr ??3@YAXPAX@Z
		add	ESP,4
L32:		mov	EAX,EBX
		pop	EBX
		ret	4
??_GWithScopeSymbol@@UAEPAXI@Z	ends
?isWithScopeSymbol@WithScopeSymbol@@UAEPAU1@XZ	comdat
	assume	CS:?isWithScopeSymbol@WithScopeSymbol@@UAEPAU1@XZ
		push	ECX
		mov	EAX,ECX
		pop	ECX
		ret
?isWithScopeSymbol@WithScopeSymbol@@UAEPAU1@XZ	ends
??_7ArrayScopeSymbol@@6B@	comdat
	dd	offset FLAT:??_GArrayScopeSymbol@@UAEPAXI@Z
	dd	offset FLAT:?equals@Dsymbol@@UAEHPAUObject@@@Z
	dd	offset FLAT:?hashCode@Object@@UAEIXZ
	dd	offset FLAT:?compare@Object@@UAEHPAU1@@Z
	dd	offset FLAT:?print@Object@@UAEXXZ
	dd	offset FLAT:?toChars@Dsymbol@@UAEPADXZ
	dd	offset FLAT:?toDchars@Object@@UAEPADXZ
	dd	offset FLAT:?toBuffer@Object@@UAEXPAUOutBuffer@@@Z
	dd	offset FLAT:?dyncast@Dsymbol@@UAEHXZ
	dd	offset FLAT:?toPrettyChars@Dsymbol@@UAEPBDXZ
	dd	offset FLAT:?kind@ScopeDsymbol@@UAEPBDXZ
	dd	offset FLAT:?toAlias@Dsymbol@@UAEPAU1@XZ
	dd	offset FLAT:?addMember@Dsymbol@@UAEHPAUScope@@PAUScopeDsymbol@@H@Z
	dd	offset FLAT:?setScope@Dsymbol@@UAEXPAUScope@@@Z
	dd	offset FLAT:?importAll@Dsymbol@@UAEXPAUScope@@@Z
	dd	offset FLAT:?semantic0@Dsymbol@@UAEXPAUScope@@@Z
	dd	offset FLAT:?semantic@Dsymbol@@UAEXPAUScope@@@Z
	dd	offset FLAT:?semantic2@Dsymbol@@UAEXPAUScope@@@Z
	dd	offset FLAT:?semantic3@Dsymbol@@UAEXPAUScope@@@Z
	dd	offset FLAT:?inlineScan@Dsymbol@@UAEXXZ
	dd	offset FLAT:?search@ArrayScopeSymbol@@UAEPAUDsymbol@@ULoc@@PAUIdentifier@@H@Z
	dd	offset FLAT:?overloadInsert@Dsymbol@@UAEHPAU1@@Z
	dd	offset FLAT:?toHBuffer@Dsymbol@@UAEXPAUOutBuffer@@PAUHdrGenState@@@Z
	dd	offset FLAT:?toCBuffer@Dsymbol@@UAEXPAUOutBuffer@@PAUHdrGenState@@@Z
	dd	offset FLAT:?toDocBuffer@Dsymbol@@UAEXPAUOutBuffer@@@Z
	dd	offset FLAT:?toJsonBuffer@Dsymbol@@UAEXPAUOutBuffer@@@Z
	dd	offset FLAT:?size@Dsymbol@@UAEIULoc@@@Z
	dd	offset FLAT:?isforwardRef@ScopeDsymbol@@UAEHXZ
	dd	offset FLAT:?defineRef@ScopeDsymbol@@UAEXPAUDsymbol@@@Z
	dd	offset FLAT:?isThis@Dsymbol@@UAEPAUAggregateDeclaration@@XZ
	dd	offset FLAT:?isClassMember@Dsymbol@@UAEPAUClassDeclaration@@XZ
	dd	offset FLAT:?isExport@Dsymbol@@UAEHXZ
	dd	offset FLAT:?isImportedSymbol@Dsymbol@@UAEHXZ
	dd	offset FLAT:?isDeprecated@Dsymbol@@UAEHXZ
	dd	offset FLAT:?isLabel@Dsymbol@@UAEPAULabelDsymbol@@XZ
	dd	offset FLAT:?isMember@Dsymbol@@UAEPAUAggregateDeclaration@@XZ
	dd	offset FLAT:?getType@Dsymbol@@UAEPAUType@@XZ
	dd	offset FLAT:?mangle@Dsymbol@@UAEPADXZ
	dd	offset FLAT:?needThis@Dsymbol@@UAEHXZ
	dd	offset FLAT:?prot@Dsymbol@@UAE?AW4PROT@@XZ
	dd	offset FLAT:?syntaxCopy@ScopeDsymbol@@UAEPAUDsymbol@@PAU2@@Z
	dd	offset FLAT:?oneMember@Dsymbol@@UAEHPAPAU1@@Z
	dd	offset FLAT:?hasPointers@Dsymbol@@UAEHXZ
	dd	offset FLAT:?addLocalClass@Dsymbol@@UAEXPAUClassDeclarations@@@Z
	dd	offset FLAT:?checkCtorConstInit@Dsymbol@@UAEXXZ
	dd	offset FLAT:?addComment@Dsymbol@@UAEXPAE@Z
	dd	offset FLAT:?emitComment@Dsymbol@@UAEXPAUScope@@@Z
	dd	offset FLAT:?toSymbol@Dsymbol@@UAEPAUSymbol@@XZ
	dd	offset FLAT:?toObjFile@Dsymbol@@UAEXH@Z
	dd	offset FLAT:?cvMember@Dsymbol@@UAEHPAE@Z
	dd	offset FLAT:?isPackage@Dsymbol@@UAEPAUPackage@@XZ
	dd	offset FLAT:?isModule@Dsymbol@@UAEPAUModule@@XZ
	dd	offset FLAT:?isEnumMember@Dsymbol@@UAEPAUEnumMember@@XZ
	dd	offset FLAT:?isTemplateDeclaration@Dsymbol@@UAEPAUTemplateDeclaration@@XZ
	dd	offset FLAT:?isTemplateInstance@Dsymbol@@UAEPAUTemplateInstance@@XZ
	dd	offset FLAT:?isTemplateMixin@Dsymbol@@UAEPAUTemplateMixin@@XZ
	dd	offset FLAT:?isDeclaration@Dsymbol@@UAEPAUDeclaration@@XZ
	dd	offset FLAT:?isThisDeclaration@Dsymbol@@UAEPAUThisDeclaration@@XZ
	dd	offset FLAT:?isTupleDeclaration@Dsymbol@@UAEPAUTupleDeclaration@@XZ
	dd	offset FLAT:?isTypedefDeclaration@Dsymbol@@UAEPAUTypedefDeclaration@@XZ
	dd	offset FLAT:?isAliasDeclaration@Dsymbol@@UAEPAUAliasDeclaration@@XZ
	dd	offset FLAT:?isAggregateDeclaration@Dsymbol@@UAEPAUAggregateDeclaration@@XZ
	dd	offset FLAT:?isFuncDeclaration@Dsymbol@@UAEPAUFuncDeclaration@@XZ
	dd	offset FLAT:?isFuncAliasDeclaration@Dsymbol@@UAEPAUFuncAliasDeclaration@@XZ
	dd	offset FLAT:?isFuncLiteralDeclaration@Dsymbol@@UAEPAUFuncLiteralDeclaration@@XZ
	dd	offset FLAT:?isCtorDeclaration@Dsymbol@@UAEPAUCtorDeclaration@@XZ
	dd	offset FLAT:?isPostBlitDeclaration@Dsymbol@@UAEPAUPostBlitDeclaration@@XZ
	dd	offset FLAT:?isDtorDeclaration@Dsymbol@@UAEPAUDtorDeclaration@@XZ
	dd	offset FLAT:?isStaticCtorDeclaration@Dsymbol@@UAEPAUStaticCtorDeclaration@@XZ
	dd	offset FLAT:?isStaticDtorDeclaration@Dsymbol@@UAEPAUStaticDtorDeclaration@@XZ
	dd	offset FLAT:?isInvariantDeclaration@Dsymbol@@UAEPAUInvariantDeclaration@@XZ
	dd	offset FLAT:?isUnitTestDeclaration@Dsymbol@@UAEPAUUnitTestDeclaration@@XZ
	dd	offset FLAT:?isNewDeclaration@Dsymbol@@UAEPAUNewDeclaration@@XZ
	dd	offset FLAT:?isVarDeclaration@Dsymbol@@UAEPAUVarDeclaration@@XZ
	dd	offset FLAT:?isClassDeclaration@Dsymbol@@UAEPAUClassDeclaration@@XZ
	dd	offset FLAT:?isStructDeclaration@Dsymbol@@UAEPAUStructDeclaration@@XZ
	dd	offset FLAT:?isUnionDeclaration@Dsymbol@@UAEPAUUnionDeclaration@@XZ
	dd	offset FLAT:?isInterfaceDeclaration@Dsymbol@@UAEPAUInterfaceDeclaration@@XZ
	dd	offset FLAT:?isScopeDsymbol@ScopeDsymbol@@UAEPAU1@XZ
	dd	offset FLAT:?isWithScopeSymbol@Dsymbol@@UAEPAUWithScopeSymbol@@XZ
	dd	offset FLAT:?isArrayScopeSymbol@ArrayScopeSymbol@@UAEPAU1@XZ
	dd	offset FLAT:?isImport@Dsymbol@@UAEPAUImport@@XZ
	dd	offset FLAT:?isEnumDeclaration@Dsymbol@@UAEPAUEnumDeclaration@@XZ
	dd	offset FLAT:?isDeleteDeclaration@Dsymbol@@UAEPAUDeleteDeclaration@@XZ
	dd	offset FLAT:?isSymbolDeclaration@Dsymbol@@UAEPAUSymbolDeclaration@@XZ
	dd	offset FLAT:?isAttribDeclaration@Dsymbol@@UAEPAUAttribDeclaration@@XZ
	dd	offset FLAT:?isOverloadSet@Dsymbol@@UAEPAUOverloadSet@@XZ
	dd	offset FLAT:?symtabInsert@ScopeDsymbol@@UAEPAUDsymbol@@PAU2@@Z
??_7ArrayScopeSymbol@@6B@	ends
??_GArrayScopeSymbol@@UAEPAXI@Z	comdat
	assume	CS:??_GArrayScopeSymbol@@UAEPAXI@Z
L0:		push	EBX
		mov	EBX,ECX
		test	ECX,ECX
		je	L32
		mov	dword ptr [EBX],offset FLAT:??_7ArrayScopeSymbol@@6B@
		mov	dword ptr [EBX],offset FLAT:??_7ScopeDsymbol@@6B@
		mov	dword ptr [EBX],offset FLAT:??_7Dsymbol@@6B@
		mov	dword ptr [EBX],offset FLAT:??_7Object@@6B@
		test	dword ptr 8[ESP],1
		je	L32
		push	EBX
		call	near ptr ??3@YAXPAX@Z
		add	ESP,4
L32:		mov	EAX,EBX
		pop	EBX
		ret	4
??_GArrayScopeSymbol@@UAEPAXI@Z	ends
?isArrayScopeSymbol@ArrayScopeSymbol@@UAEPAU1@XZ	comdat
	assume	CS:?isArrayScopeSymbol@ArrayScopeSymbol@@UAEPAU1@XZ
		push	ECX
		mov	EAX,ECX
		pop	ECX
		ret
?isArrayScopeSymbol@ArrayScopeSymbol@@UAEPAU1@XZ	ends
??_7DsymbolTable@@6B@	comdat
	dd	offset FLAT:??_GDsymbolTable@@UAEPAXI@Z
	dd	offset FLAT:?equals@Object@@UAEHPAU1@@Z
	dd	offset FLAT:?hashCode@Object@@UAEIXZ
	dd	offset FLAT:?compare@Object@@UAEHPAU1@@Z
	dd	offset FLAT:?print@Object@@UAEXXZ
	dd	offset FLAT:?toChars@Object@@UAEPADXZ
	dd	offset FLAT:?toDchars@Object@@UAEPADXZ
	dd	offset FLAT:?toBuffer@Object@@UAEXPAUOutBuffer@@@Z
	dd	offset FLAT:?dyncast@Object@@UAEHXZ
??_7DsymbolTable@@6B@	ends
??_GDsymbolTable@@UAEPAXI@Z	comdat
	assume	CS:??_GDsymbolTable@@UAEPAXI@Z
L0:		push	EBX
		mov	EBX,ECX
		test	ECX,ECX
		je	L1F
		call	near ptr ??1DsymbolTable@@UAE@XZ
		test	dword ptr 8[ESP],1
		je	L1F
		push	EBX
		call	near ptr ??3@YAXPAX@Z
		add	ESP,4
L1F:		mov	EAX,EBX
		pop	EBX
		ret	4
??_GDsymbolTable@@UAEPAXI@Z	ends
	end
