_TEXT	segment dword use32 public 'CODE'	;size is 5803
_TEXT	ends
_DATA	segment dword use32 public 'DATA'	;size is 1102
_DATA	ends
CONST	segment dword use32 public 'CONST'	;size is 0
CONST	ends
_BSS	segment dword use32 public 'BSS'	;size is 44
_BSS	ends
FLAT	group	
	comm	near ?moduleinfo@Module@@2PAUClassDeclaration@@A:byte:04h
	comm	near ?rootModule@Module@@2PAU1@A:byte:04h
	comm	near ?modules@Module@@2PAUDsymbolTable@@A:byte:04h
	comm	near ?dprogress@Module@@2IA:byte:04h

	public	?amodules@Module@@2UArray@@A
	public	?deferred@Module@@2UArray@@A
	extrn	??_7Module@@6B@
	extrn	??_GModule@@UAEPAXI@Z
	extrn	?dyncast@Dsymbol@@UAEHXZ
	extrn	?semantic@Package@@UAEXPAUScope@@@Z
	extrn	?addLocalClass@Dsymbol@@UAEXPAUClassDeclarations@@@Z
	extrn	?checkCtorConstInit@Dsymbol@@UAEXXZ
	extrn	?isPackage@Package@@UAEPAU1@XZ
	extrn	?isModule@Module@@UAEPAU1@XZ
	extrn	?isEnumMember@Dsymbol@@UAEPAUEnumMember@@XZ
	extrn	?isTemplateDeclaration@Dsymbol@@UAEPAUTemplateDeclaration@@XZ
	extrn	?isTemplateInstance@Dsymbol@@UAEPAUTemplateInstance@@XZ
	extrn	?isTemplateMixin@Dsymbol@@UAEPAUTemplateMixin@@XZ
	extrn	?isDeclaration@Dsymbol@@UAEPAUDeclaration@@XZ
	extrn	?isThisDeclaration@Dsymbol@@UAEPAUThisDeclaration@@XZ
	extrn	?isTupleDeclaration@Dsymbol@@UAEPAUTupleDeclaration@@XZ
	extrn	?isTypedefDeclaration@Dsymbol@@UAEPAUTypedefDeclaration@@XZ
	extrn	?isAliasDeclaration@Dsymbol@@UAEPAUAliasDeclaration@@XZ
	extrn	?isAggregateDeclaration@Dsymbol@@UAEPAUAggregateDeclaration@@XZ
	extrn	?isFuncDeclaration@Dsymbol@@UAEPAUFuncDeclaration@@XZ
	extrn	?isFuncAliasDeclaration@Dsymbol@@UAEPAUFuncAliasDeclaration@@XZ
	extrn	?isFuncLiteralDeclaration@Dsymbol@@UAEPAUFuncLiteralDeclaration@@XZ
	extrn	?isCtorDeclaration@Dsymbol@@UAEPAUCtorDeclaration@@XZ
	extrn	?isPostBlitDeclaration@Dsymbol@@UAEPAUPostBlitDeclaration@@XZ
	extrn	?isDtorDeclaration@Dsymbol@@UAEPAUDtorDeclaration@@XZ
	extrn	?isStaticCtorDeclaration@Dsymbol@@UAEPAUStaticCtorDeclaration@@XZ
	extrn	?isStaticDtorDeclaration@Dsymbol@@UAEPAUStaticDtorDeclaration@@XZ
	extrn	?isInvariantDeclaration@Dsymbol@@UAEPAUInvariantDeclaration@@XZ
	extrn	?isUnitTestDeclaration@Dsymbol@@UAEPAUUnitTestDeclaration@@XZ
	extrn	?isNewDeclaration@Dsymbol@@UAEPAUNewDeclaration@@XZ
	extrn	?isVarDeclaration@Dsymbol@@UAEPAUVarDeclaration@@XZ
	extrn	?isClassDeclaration@Dsymbol@@UAEPAUClassDeclaration@@XZ
	extrn	?isStructDeclaration@Dsymbol@@UAEPAUStructDeclaration@@XZ
	extrn	?isUnionDeclaration@Dsymbol@@UAEPAUUnionDeclaration@@XZ
	extrn	?isInterfaceDeclaration@Dsymbol@@UAEPAUInterfaceDeclaration@@XZ
	extrn	?isScopeDsymbol@ScopeDsymbol@@UAEPAU1@XZ
	extrn	?isWithScopeSymbol@Dsymbol@@UAEPAUWithScopeSymbol@@XZ
	extrn	?isArrayScopeSymbol@Dsymbol@@UAEPAUArrayScopeSymbol@@XZ
	extrn	?isImport@Dsymbol@@UAEPAUImport@@XZ
	extrn	?isEnumDeclaration@Dsymbol@@UAEPAUEnumDeclaration@@XZ
	extrn	?isDeleteDeclaration@Dsymbol@@UAEPAUDeleteDeclaration@@XZ
	extrn	?isSymbolDeclaration@Dsymbol@@UAEPAUSymbolDeclaration@@XZ
	extrn	?isAttribDeclaration@Dsymbol@@UAEPAUAttribDeclaration@@XZ
	extrn	?isOverloadSet@Dsymbol@@UAEPAUOverloadSet@@XZ

	public	?init@Module@@SAXXZ
	public	??0Module@@QAE@PADPAUIdentifier@@HH@Z
	public	?setDocfile@Module@@QAEXXZ
	extrn	??_7Package@@6B@
	extrn	??_7ScopeDsymbol@@6B@
	extrn	??_7Dsymbol@@6B@
	extrn	??_7Object@@6B@
	extrn	??_GPackage@@UAEPAXI@Z
	extrn	?isModule@Dsymbol@@UAEPAUModule@@XZ
	extrn	??_GScopeDsymbol@@UAEPAXI@Z
	extrn	?isPackage@Dsymbol@@UAEPAUPackage@@XZ
	extrn	??_GDsymbol@@UAEPAXI@Z
	extrn	?isScopeDsymbol@Dsymbol@@UAEPAUScopeDsymbol@@XZ
	extrn	??_GObject@@UAEPAXI@Z

	public	?setHdrfile@Module@@QAEXXZ
	public	?deleteObjFile@Module@@QAEXXZ
	public	??1Module@@UAE@XZ
	public	?kind@Module@@UAEPBDXZ
	public	?load@Module@@SAPAU1@ULoc@@PAUArray@@PAUIdentifier@@@Z
	public	?read@Module@@QAEXULoc@@@Z
	public	?parse@Module@@QAEXXZ
	public	?importAll@Module@@UAEXPAUScope@@@Z
	public	?semantic@Module@@QAEXXZ
	public	?semantic2@Module@@QAEXXZ
	public	?semantic3@Module@@QAEXXZ
	public	?inlineScan@Module@@UAEXXZ
	public	?gensymfile@Module@@QAEXXZ
	public	?needModuleInfo@Module@@QAEHXZ
	public	?search@Module@@UAEPAUDsymbol@@ULoc@@PAUIdentifier@@H@Z
	public	?symtabInsert@Module@@UAEPAUDsymbol@@PAU2@@Z
	public	?clearCache@Module@@SAXXZ
	public	?addDeferredSemantic@Module@@QAEXPAUDsymbol@@@Z
	public	?runDeferredSemantic@Module@@SAXXZ
	public	?imports@Module@@QAEHPAU1@@Z
	public	?selfImports@Module@@QAEHXZ
	public	??0ModuleDeclaration@@QAE@PAUArray@@PAUIdentifier@@@Z
	public	?toChars@ModuleDeclaration@@QAEPADXZ
	public	??0Package@@QAE@PAUIdentifier@@@Z
	public	?kind@Package@@UAEPBDXZ
XIFCB	segment dword use32 public 'DATA'	;size is 0
XIFCB	ends
XIFU	segment dword use32 public 'DATA'	;size is 4
XIFU	ends
XIFL	segment dword use32 public 'DATA'	;size is 0
XIFL	ends
XIFM	segment dword use32 public 'DATA'	;size is 0
XIFM	ends
XIFCE	segment dword use32 public 'DATA'	;size is 0
XIFCE	ends
XOFB	segment dword use32 public 'BSS'	;size is 0
XOFB	ends
XOF	segment dword use32 public 'BSS'	;size is 4
XOF	ends
XOFE	segment dword use32 public 'BSS'	;size is 0
XOFE	ends

	public	?resolve@Package@@SAPAUDsymbolTable@@PAUArray@@PAPAUDsymbol@@PAPAU1@@Z
	public	___SD?%module_c2125349201_
includelib SNN.lib
	extrn	___alloca
	extrn	__fatexit
	extrn	??0Array@@QAE@XZ
	extrn	??1Array@@UAE@XZ
	extrn	?fatal@@YAXXZ
	extrn	?error@Dsymbol@@QAAXPBDZZ
	extrn	__assert
	extrn	??0DsymbolTable@@QAE@XZ
	extrn	??2@YAPAXI@Z
	extrn	?insert@DsymbolTable@@QAEPAUDsymbol@@PAU2@@Z
	extrn	?lookup@DsymbolTable@@QAEPAUDsymbol@@PAUIdentifier@@@Z
	extrn	??0ScopeDsymbol@@QAE@PAUIdentifier@@@Z
	extrn	??1OutBuffer@@UAE@XZ
	extrn	?extractData@OutBuffer@@QAEPAXXZ
	extrn	?writeByte@OutBuffer@@QAEXI@Z
	extrn	?writestring@OutBuffer@@QAEXPBD@Z
	extrn	??0OutBuffer@@QAE@XZ
	extrn	?setDim@Array@@QAEXI@Z
	extrn	_memcpy
	extrn	?push@Array@@QAEXPAX@Z
	extrn	?symtabInsert@ScopeDsymbol@@UAEPAUDsymbol@@PAU2@@Z
	extrn	?search@ScopeDsymbol@@UAEPAUDsymbol@@ULoc@@PAUIdentifier@@H@Z
	extrn	?global@@3UGlobal@@A
	extrn	?writev@File@@QAEXXZ
	extrn	?writenl@OutBuffer@@QAEXXZ
	extrn	?printf@OutBuffer@@QAAXPBDZZ
	extrn	_memset
	extrn	?pop@Scope@@QAEPAU1@XZ
	extrn	?createGlobal@Scope@@SAPAU1@PAUModule@@@Z
	extrn	_printf
	extrn	?shift@Array@@QAEXPAX@Z
	extrn	??0Import@@QAE@ULoc@@PAUArray@@PAUIdentifier@@2H@Z
	extrn	?object@Id@@2PAUIdentifier@@A
	extrn	?error@Dsymbol@@QAAXULoc@@PBDZZ
	extrn	?isValidIdentifier@Lexer@@SAHPAD@Z
	extrn	?parseModule@Parser@@QAEPAUArray@@XZ
	extrn	?nextToken@Lexer@@QAE?AW4TOK@@XZ
	extrn	??0Parser@@QAE@PAUModule@@PAEIH@Z
	extrn	?extractCode@Html@@QAEXPAUOutBuffer@@@Z
	extrn	??0Html@@QAE@PBDPAEI@Z
	extrn	_memcmp
	extrn	?writeUTF8@OutBuffer@@QAEXI@Z
	extrn	?reserve@OutBuffer@@QAEXI@Z
	extrn	_fprintf
	extrn	__iob
	extrn	?read@File@@QAEHXZ
	extrn	??0File@@QAE@PAD@Z
	extrn	?free@Mem@@QAEXPAX@Z
	extrn	?mem@@3UMem@@A
	extrn	?exists@FileName@@SAHPBD@Z
	extrn	?combine@FileName@@SAPADPBD0@Z
	extrn	?absolute@FileName@@SAHPBD@Z
	extrn	?forceExt@FileName@@SAPAU1@PBD0@Z
	extrn	??3@YAXPAX@Z
	extrn	?dyncast@Object@@UAEHXZ
	extrn	?toBuffer@Object@@UAEXPAUOutBuffer@@@Z
	extrn	?toDchars@Object@@UAEPADXZ
	extrn	?toChars@Object@@UAEPADXZ
	extrn	?print@Object@@UAEXXZ
	extrn	?compare@Object@@UAEHPAU1@@Z
	extrn	?hashCode@Object@@UAEIXZ
	extrn	?equals@Object@@UAEHPAU1@@Z
	extrn	?cvMember@Dsymbol@@UAEHPAE@Z
	extrn	?toObjFile@Dsymbol@@UAEXH@Z
	extrn	?toSymbol@Dsymbol@@UAEPAUSymbol@@XZ
	extrn	?emitComment@Dsymbol@@UAEXPAUScope@@@Z
	extrn	?addComment@Dsymbol@@UAEXPAE@Z
	extrn	?hasPointers@Dsymbol@@UAEHXZ
	extrn	?oneMember@Dsymbol@@UAEHPAPAU1@@Z
	extrn	?syntaxCopy@Dsymbol@@UAEPAU1@PAU1@@Z
	extrn	?prot@Dsymbol@@UAE?AW4PROT@@XZ
	extrn	?needThis@Dsymbol@@UAEHXZ
	extrn	?mangle@Dsymbol@@UAEPADXZ
	extrn	?getType@Dsymbol@@UAEPAUType@@XZ
	extrn	?isMember@Dsymbol@@UAEPAUAggregateDeclaration@@XZ
	extrn	?isLabel@Dsymbol@@UAEPAULabelDsymbol@@XZ
	extrn	?isDeprecated@Dsymbol@@UAEHXZ
	extrn	?isImportedSymbol@Dsymbol@@UAEHXZ
	extrn	?isExport@Dsymbol@@UAEHXZ
	extrn	?isClassMember@Dsymbol@@UAEPAUClassDeclaration@@XZ
	extrn	?isThis@Dsymbol@@UAEPAUAggregateDeclaration@@XZ
	extrn	?defineRef@Dsymbol@@UAEXPAU1@@Z
	extrn	?isforwardRef@Dsymbol@@UAEHXZ
	extrn	?size@Dsymbol@@UAEIULoc@@@Z
	extrn	?toJsonBuffer@Dsymbol@@UAEXPAUOutBuffer@@@Z
	extrn	?toDocBuffer@Dsymbol@@UAEXPAUOutBuffer@@@Z
	extrn	?toCBuffer@Dsymbol@@UAEXPAUOutBuffer@@PAUHdrGenState@@@Z
	extrn	?toHBuffer@Dsymbol@@UAEXPAUOutBuffer@@PAUHdrGenState@@@Z
	extrn	?overloadInsert@Dsymbol@@UAEHPAU1@@Z
	extrn	?search@Dsymbol@@UAEPAU1@ULoc@@PAUIdentifier@@H@Z
	extrn	?inlineScan@Dsymbol@@UAEXXZ
	extrn	?semantic3@Dsymbol@@UAEXPAUScope@@@Z
	extrn	?semantic2@Dsymbol@@UAEXPAUScope@@@Z
	extrn	?semantic@Dsymbol@@UAEXPAUScope@@@Z
	extrn	?semantic0@Dsymbol@@UAEXPAUScope@@@Z
	extrn	?importAll@Dsymbol@@UAEXPAUScope@@@Z
	extrn	?setScope@Dsymbol@@UAEXPAUScope@@@Z
	extrn	?addMember@Dsymbol@@UAEHPAUScope@@PAUScopeDsymbol@@H@Z
	extrn	?toAlias@Dsymbol@@UAEPAU1@XZ
	extrn	?kind@Dsymbol@@UAEPBDXZ
	extrn	?toPrettyChars@Dsymbol@@UAEPBDXZ
	extrn	?toChars@Dsymbol@@UAEPADXZ
	extrn	?equals@Dsymbol@@UAEHPAUObject@@@Z
	extrn	?syntaxCopy@ScopeDsymbol@@UAEPAUDsymbol@@PAU2@@Z
	extrn	?defineRef@ScopeDsymbol@@UAEXPAUDsymbol@@@Z
	extrn	?isforwardRef@ScopeDsymbol@@UAEHXZ
	extrn	?kind@ScopeDsymbol@@UAEPBDXZ
	extrn	?remove@File@@QAEXXZ
	extrn	??0File@@QAE@PAUFileName@@@Z
	extrn	??0FileName@@QAE@PADH@Z
	extrn	?name@FileName@@SAPADPBD@Z
	extrn	?equalsExt@FileName@@QAEHPBD@Z
	extrn	?defaultExt@FileName@@SAPAU1@PBD0@Z
	extrn	?toSymbol@Module@@UAEPAUSymbol@@XZ
	extrn	?toJsonBuffer@Module@@UAEXPAUOutBuffer@@@Z
	extrn	?toCBuffer@Module@@UAEXPAUOutBuffer@@PAUHdrGenState@@@Z

	public	___SI?%module_c2125349201_
??_7Module@@6B@	COMDAT flags=x0 attr=x10 align=x0 
??_GModule@@UAEPAXI@Z	COMDAT flags=x0 attr=x10 align=x0 
?dyncast@Dsymbol@@UAEHXZ	COMDAT flags=x0 attr=x10 align=x0 
?semantic@Package@@UAEXPAUScope@@@Z	COMDAT flags=x0 attr=x10 align=x0 
?addLocalClass@Dsymbol@@UAEXPAUClassDeclarations@@@Z	COMDAT flags=x0 attr=x10 align=x0 
?checkCtorConstInit@Dsymbol@@UAEXXZ	COMDAT flags=x0 attr=x10 align=x0 
?isPackage@Package@@UAEPAU1@XZ	COMDAT flags=x0 attr=x10 align=x0 
?isModule@Module@@UAEPAU1@XZ	COMDAT flags=x0 attr=x10 align=x0 
?isEnumMember@Dsymbol@@UAEPAUEnumMember@@XZ	COMDAT flags=x0 attr=x10 align=x0 
?isTemplateDeclaration@Dsymbol@@UAEPAUTemplateDeclaration@@XZ	COMDAT flags=x0 attr=x10 align=x0 
?isTemplateInstance@Dsymbol@@UAEPAUTemplateInstance@@XZ	COMDAT flags=x0 attr=x10 align=x0 
?isTemplateMixin@Dsymbol@@UAEPAUTemplateMixin@@XZ	COMDAT flags=x0 attr=x10 align=x0 
?isDeclaration@Dsymbol@@UAEPAUDeclaration@@XZ	COMDAT flags=x0 attr=x10 align=x0 
?isThisDeclaration@Dsymbol@@UAEPAUThisDeclaration@@XZ	COMDAT flags=x0 attr=x10 align=x0 
?isTupleDeclaration@Dsymbol@@UAEPAUTupleDeclaration@@XZ	COMDAT flags=x0 attr=x10 align=x0 
?isTypedefDeclaration@Dsymbol@@UAEPAUTypedefDeclaration@@XZ	COMDAT flags=x0 attr=x10 align=x0 
?isAliasDeclaration@Dsymbol@@UAEPAUAliasDeclaration@@XZ	COMDAT flags=x0 attr=x10 align=x0 
?isAggregateDeclaration@Dsymbol@@UAEPAUAggregateDeclaration@@XZ	COMDAT flags=x0 attr=x10 align=x0 
?isFuncDeclaration@Dsymbol@@UAEPAUFuncDeclaration@@XZ	COMDAT flags=x0 attr=x10 align=x0 
?isFuncAliasDeclaration@Dsymbol@@UAEPAUFuncAliasDeclaration@@XZ	COMDAT flags=x0 attr=x10 align=x0 
?isFuncLiteralDeclaration@Dsymbol@@UAEPAUFuncLiteralDeclaration@@XZ	COMDAT flags=x0 attr=x10 align=x0 
?isCtorDeclaration@Dsymbol@@UAEPAUCtorDeclaration@@XZ	COMDAT flags=x0 attr=x10 align=x0 
?isPostBlitDeclaration@Dsymbol@@UAEPAUPostBlitDeclaration@@XZ	COMDAT flags=x0 attr=x10 align=x0 
?isDtorDeclaration@Dsymbol@@UAEPAUDtorDeclaration@@XZ	COMDAT flags=x0 attr=x10 align=x0 
?isStaticCtorDeclaration@Dsymbol@@UAEPAUStaticCtorDeclaration@@XZ	COMDAT flags=x0 attr=x10 align=x0 
?isStaticDtorDeclaration@Dsymbol@@UAEPAUStaticDtorDeclaration@@XZ	COMDAT flags=x0 attr=x10 align=x0 
?isInvariantDeclaration@Dsymbol@@UAEPAUInvariantDeclaration@@XZ	COMDAT flags=x0 attr=x10 align=x0 
?isUnitTestDeclaration@Dsymbol@@UAEPAUUnitTestDeclaration@@XZ	COMDAT flags=x0 attr=x10 align=x0 
?isNewDeclaration@Dsymbol@@UAEPAUNewDeclaration@@XZ	COMDAT flags=x0 attr=x10 align=x0 
?isVarDeclaration@Dsymbol@@UAEPAUVarDeclaration@@XZ	COMDAT flags=x0 attr=x10 align=x0 
?isClassDeclaration@Dsymbol@@UAEPAUClassDeclaration@@XZ	COMDAT flags=x0 attr=x10 align=x0 
?isStructDeclaration@Dsymbol@@UAEPAUStructDeclaration@@XZ	COMDAT flags=x0 attr=x10 align=x0 
?isUnionDeclaration@Dsymbol@@UAEPAUUnionDeclaration@@XZ	COMDAT flags=x0 attr=x10 align=x0 
?isInterfaceDeclaration@Dsymbol@@UAEPAUInterfaceDeclaration@@XZ	COMDAT flags=x0 attr=x10 align=x0 
?isScopeDsymbol@ScopeDsymbol@@UAEPAU1@XZ	COMDAT flags=x0 attr=x10 align=x0 
?isWithScopeSymbol@Dsymbol@@UAEPAUWithScopeSymbol@@XZ	COMDAT flags=x0 attr=x10 align=x0 
?isArrayScopeSymbol@Dsymbol@@UAEPAUArrayScopeSymbol@@XZ	COMDAT flags=x0 attr=x10 align=x0 
?isImport@Dsymbol@@UAEPAUImport@@XZ	COMDAT flags=x0 attr=x10 align=x0 
?isEnumDeclaration@Dsymbol@@UAEPAUEnumDeclaration@@XZ	COMDAT flags=x0 attr=x10 align=x0 
?isDeleteDeclaration@Dsymbol@@UAEPAUDeleteDeclaration@@XZ	COMDAT flags=x0 attr=x10 align=x0 
?isSymbolDeclaration@Dsymbol@@UAEPAUSymbolDeclaration@@XZ	COMDAT flags=x0 attr=x10 align=x0 
?isAttribDeclaration@Dsymbol@@UAEPAUAttribDeclaration@@XZ	COMDAT flags=x0 attr=x10 align=x0 
?isOverloadSet@Dsymbol@@UAEPAUOverloadSet@@XZ	COMDAT flags=x0 attr=x10 align=x0 
??_7Package@@6B@	COMDAT flags=x0 attr=x10 align=x0 
??_7ScopeDsymbol@@6B@	COMDAT flags=x0 attr=x10 align=x0 
??_7Dsymbol@@6B@	COMDAT flags=x0 attr=x10 align=x0 
??_7Object@@6B@	COMDAT flags=x0 attr=x10 align=x0 
??_GPackage@@UAEPAXI@Z	COMDAT flags=x0 attr=x10 align=x0 
?isModule@Dsymbol@@UAEPAUModule@@XZ	COMDAT flags=x0 attr=x10 align=x0 
??_GScopeDsymbol@@UAEPAXI@Z	COMDAT flags=x0 attr=x10 align=x0 
?isPackage@Dsymbol@@UAEPAUPackage@@XZ	COMDAT flags=x0 attr=x10 align=x0 
??_GDsymbol@@UAEPAXI@Z	COMDAT flags=x0 attr=x10 align=x0 
?isScopeDsymbol@Dsymbol@@UAEPAUScopeDsymbol@@XZ	COMDAT flags=x0 attr=x10 align=x0 
??_GObject@@UAEPAXI@Z	COMDAT flags=x0 attr=x10 align=x0 

_TEXT	segment
	assume	CS:_TEXT
?init@Module@@SAXXZ:
		push	EBX
		push	8
		call	near ptr ??2@YAPAXI@Z
		add	ESP,4
		mov	EBX,EAX
		test	EAX,EAX
		je	L1A
		mov	ECX,EBX
		call	near ptr ??0DsymbolTable@@QAE@XZ
		mov	EBX,EAX
L1A:		mov	?modules@Module@@2PAUDsymbolTable@@A,EBX
		pop	EBX
		ret
??0Module@@QAE@PADPAUIdentifier@@HH@Z:
		sub	ESP,0Ch
		push	EBX
		mov	EBX,ECX
		push	EBP
		mov	EBP,018h[ESP]
		push	ESI
		push	EDI
		push	dword ptr 024h[ESP]
		call	near ptr ??0Package@@QAE@PAUIdentifier@@@Z
		lea	ECX,090h[EBX]
		call	near ptr ??0Array@@QAE@XZ
		xor	EDX,EDX
		mov	dword ptr [EBX],offset FLAT:??_7Module@@6B@
		mov	038h[EBX],EBP
		mov	03Ch[EBX],EDX
		mov	054h[EBX],EDX
		mov	058h[EBX],EDX
		mov	028h[EBX],EDX
		mov	05Ch[EBX],EDX
		mov	060h[EBX],EDX
		mov	064h[EBX],EDX
		mov	068h[EBX],EDX
		mov	06Ch[EBX],EDX
		mov	070h[EBX],EDX
		mov	074h[EBX],EDX
		mov	078h[EBX],EDX
		mov	07Ch[EBX],EDX
		mov	080h[EBX],EDX
		mov	08Ch[EBX],EDX
		mov	0A4h[EBX],EDX
		mov	0ECh[EBX],EDX
		mov	0F0h[EBX],EDX
		mov	0D8h[EBX],EDX
		mov	0DCh[EBX],EDX
		mov	0E0h[EBX],EDX
		mov	0E4h[EBX],EDX
		mov	0E8h[EBX],EDX
		mov	084h[EBX],EDX
		mov	088h[EBX],EDX
		mov	040h[EBX],EDX
		mov	050h[EBX],EDX
		mov	0A8h[EBX],EDX
		mov	0ACh[EBX],EDX
		mov	0B0h[EBX],EDX
		mov	0B4h[EBX],EDX
		mov	0B8h[EBX],EDX
		mov	0BCh[EBX],EDX
		mov	0C0h[EBX],EDX
		mov	0C4h[EBX],EDX
		mov	0C8h[EBX],DL
		mov	0CCh[EBX],EDX
		mov	0D0h[EBX],EDX
		mov	0D4h[EBX],EDX
		push	dword ptr ?global@@3UGlobal@@A
		push	EBP
		call	near ptr ?defaultExt@FileName@@SAPAU1@PBD0@Z
		add	ESP,8
		mov	ESI,EAX
		push	dword ptr ?global@@3UGlobal@@A
		mov	ECX,ESI
		call	near ptr ?equalsExt@FileName@@QAEHPBD@Z
		test	EAX,EAX
		jne	L1A8
		push	dword ptr ?global@@3UGlobal@@A[01Ch]
		mov	ECX,ESI
		call	near ptr ?equalsExt@FileName@@QAEHPBD@Z
		test	EAX,EAX
		jne	L1A8
		push	offset FLAT:_DATA
		mov	ECX,ESI
		call	near ptr ?equalsExt@FileName@@QAEHPBD@Z
		test	EAX,EAX
		jne	L1A8
		push	offset FLAT:_DATA[4]
		mov	ECX,ESI
		call	near ptr ?equalsExt@FileName@@QAEHPBD@Z
		test	EAX,EAX
		jne	L17E
		push	offset FLAT:_DATA[0Ch]
		mov	ECX,ESI
		call	near ptr ?equalsExt@FileName@@QAEHPBD@Z
		test	EAX,EAX
		jne	L17E
		push	offset FLAT:_DATA[010h]
		mov	ECX,ESI
		call	near ptr ?equalsExt@FileName@@QAEHPBD@Z
		test	EAX,EAX
		je	L187
L17E:		mov	dword ptr 05Ch[EBX],1
		jmp short	L1A8
L187:		push	dword ptr ?global@@3UGlobal@@A
		mov	EDX,[ESI]
		mov	ECX,ESI
		call	dword ptr 014h[EDX]
		push	EAX
		push	offset FLAT:_DATA[018h]
		push	EBX
		call	near ptr ?error@Dsymbol@@QAAXPBDZZ
		call	near ptr ?fatal@@YAXXZ
		add	ESP,010h
L1A8:		cmp	dword ptr ?global@@3UGlobal@@A[078h],0
		je	L1B9
		mov	EDI,?global@@3UGlobal@@A[078h]
		jmp short	L1EF
L1B9:		cmp	byte ptr ?global@@3UGlobal@@A[060h],0
		je	L1C6
		mov	EDI,EBP
		jmp short	L1D1
L1C6:		push	EBP
		call	near ptr ?name@FileName@@SAPADPBD@Z
		mov	EDI,EAX
		add	ESP,4
L1D1:		push	EDI
		call	near ptr ?absolute@FileName@@SAHPBD@Z
		add	ESP,4
		test	EAX,EAX
		jne	L1EF
		push	EDI
		push	dword ptr ?global@@3UGlobal@@A[074h]
		call	near ptr ?combine@FileName@@SAPADPBD0@Z
		mov	EDI,EAX
		add	ESP,8
L1EF:		cmp	dword ptr ?global@@3UGlobal@@A[078h],0
		je	L222
		push	0Ch
		call	near ptr ??2@YAPAXI@Z
		add	ESP,4
		test	EAX,EAX
		mov	018h[ESP],EAX
		je	L218
		mov	ECX,EAX
		push	0
		push	EDI
		call	near ptr ??0FileName@@QAE@PADH@Z
		mov	018h[ESP],EAX
L218:		mov	EDX,018h[ESP]
		mov	010h[ESP],EDX
		jmp short	L235
L222:		push	dword ptr ?global@@3UGlobal@@A[08h]
		push	EDI
		call	near ptr ?forceExt@FileName@@SAPAU1@PBD0@Z
		mov	018h[ESP],EAX
		add	ESP,8
L235:		push	dword ptr ?global@@3UGlobal@@A[04h]
		push	EBP
		call	near ptr ?forceExt@FileName@@SAPAU1@PBD0@Z
		mov	01Ch[ESP],EAX
		push	018h
		call	near ptr ??2@YAPAXI@Z
		add	ESP,4
		mov	EDI,EAX
		test	EAX,EAX
		je	L25F
		mov	ECX,EDI
		push	ESI
		call	near ptr ??0File@@QAE@PAUFileName@@@Z
		mov	EDI,EAX
L25F:		mov	040h[EBX],EDI
		add	ESP,8
		cmp	dword ptr 028h[ESP],0
		je	L273
		mov	ECX,EBX
		call	near ptr ?setDocfile@Module@@QAEXXZ
L273:		cmp	dword ptr 02Ch[ESP],0
		je	L281
		mov	ECX,EBX
		call	near ptr ?setHdrfile@Module@@QAEXXZ
L281:		push	018h
		call	near ptr ??2@YAPAXI@Z
		add	ESP,4
		mov	ESI,EAX
		test	EAX,EAX
		je	L29E
		mov	ECX,ESI
		push	dword ptr 010h[ESP]
		call	near ptr ??0File@@QAE@PAUFileName@@@Z
		mov	ESI,EAX
L29E:		mov	044h[EBX],ESI
		push	018h
		call	near ptr ??2@YAPAXI@Z
		add	ESP,4
		mov	EDI,EAX
		test	EAX,EAX
		je	L2BE
		mov	ECX,EDI
		push	dword ptr 014h[ESP]
		call	near ptr ??0File@@QAE@PAUFileName@@@Z
		mov	EDI,EAX
L2BE:		mov	EAX,EBX
		mov	04Ch[EBX],EDI
		pop	EDI
		pop	ESI
		pop	EBP
		pop	EBX
		add	ESP,0Ch
		ret	010h
		nop
		nop
		nop
?setDocfile@Module@@QAEXXZ:
		push	ECX
		push	EBX
		push	EBP
		push	ESI
		mov	ESI,ECX
		push	EDI
		cmp	dword ptr ?global@@3UGlobal@@A[088h],0
		je	L2E8
		mov	EBX,?global@@3UGlobal@@A[088h]
		jmp short	L303
L2E8:		cmp	byte ptr ?global@@3UGlobal@@A[060h],0
		je	L2F6
		mov	EBX,038h[ESI]
		jmp short	L303
L2F6:		push	dword ptr 038h[ESI]
		call	near ptr ?name@FileName@@SAPADPBD@Z
		mov	EBX,EAX
		add	ESP,4
L303:		push	EBX
		call	near ptr ?absolute@FileName@@SAHPBD@Z
		add	ESP,4
		test	EAX,EAX
		jne	L321
		push	EBX
		push	dword ptr ?global@@3UGlobal@@A[084h]
		call	near ptr ?combine@FileName@@SAPADPBD0@Z
		mov	EBX,EAX
		add	ESP,8
L321:		cmp	dword ptr ?global@@3UGlobal@@A[088h],0
		je	L34A
		push	0Ch
		call	near ptr ??2@YAPAXI@Z
		add	ESP,4
		mov	EBP,EAX
		test	EAX,EAX
		je	L346
		mov	ECX,EBP
		push	0
		push	EBX
		call	near ptr ??0FileName@@QAE@PADH@Z
		mov	EBP,EAX
L346:		mov	EDI,EBP
		jmp short	L35B
L34A:		push	dword ptr ?global@@3UGlobal@@A[014h]
		push	EBX
		call	near ptr ?forceExt@FileName@@SAPAU1@PBD0@Z
		mov	EDI,EAX
		add	ESP,8
L35B:		mov	EDX,040h[ESI]
		mov	ECX,EDI
		push	dword ptr 014h[EDX]
		mov	EDX,[EDI]
		call	dword ptr 4[EDX]
		test	EAX,EAX
		je	L388
		mov	ECX,040h[ESI]
		mov	EDX,014h[ECX]
		push	dword ptr 8[EDX]
		push	offset FLAT:_DATA[048h]
		push	ESI
		call	near ptr ?error@Dsymbol@@QAAXPBDZZ
		call	near ptr ?fatal@@YAXXZ
		add	ESP,0Ch
L388:		push	018h
		call	near ptr ??2@YAPAXI@Z
		add	ESP,4
		mov	EBX,EAX
		test	EAX,EAX
		je	L3A2
		mov	ECX,EBX
		push	EDI
		call	near ptr ??0File@@QAE@PAUFileName@@@Z
		mov	EBX,EAX
L3A2:		mov	050h[ESI],EBX
		pop	EDI
		pop	ESI
		pop	EBP
		pop	EBX
		pop	EAX
		ret
		nop
		nop
		nop
		nop
		nop
?setHdrfile@Module@@QAEXXZ:
		push	ECX
		push	EBX
		push	EBP
		push	ESI
		mov	ESI,ECX
		push	EDI
		cmp	dword ptr ?global@@3UGlobal@@A[098h],0
		je	L3C8
		mov	EBX,?global@@3UGlobal@@A[098h]
		jmp short	L3E3
L3C8:		cmp	byte ptr ?global@@3UGlobal@@A[060h],0
		je	L3D6
		mov	EBX,038h[ESI]
		jmp short	L3E3
L3D6:		push	dword ptr 038h[ESI]
		call	near ptr ?name@FileName@@SAPADPBD@Z
		mov	EBX,EAX
		add	ESP,4
L3E3:		push	EBX
		call	near ptr ?absolute@FileName@@SAHPBD@Z
		add	ESP,4
		test	EAX,EAX
		jne	L401
		push	EBX
		push	dword ptr ?global@@3UGlobal@@A[094h]
		call	near ptr ?combine@FileName@@SAPADPBD0@Z
		mov	EBX,EAX
		add	ESP,8
L401:		cmp	dword ptr ?global@@3UGlobal@@A[098h],0
		je	L42A
		push	0Ch
		call	near ptr ??2@YAPAXI@Z
		add	ESP,4
		mov	EBP,EAX
		test	EAX,EAX
		je	L426
		mov	ECX,EBP
		push	0
		push	EBX
		call	near ptr ??0FileName@@QAE@PADH@Z
		mov	EBP,EAX
L426:		mov	EDI,EBP
		jmp short	L43B
L42A:		push	dword ptr ?global@@3UGlobal@@A[01Ch]
		push	EBX
		call	near ptr ?forceExt@FileName@@SAPAU1@PBD0@Z
		mov	EDI,EAX
		add	ESP,8
L43B:		mov	EDX,040h[ESI]
		mov	ECX,EDI
		push	dword ptr 014h[EDX]
		mov	EDX,[EDI]
		call	dword ptr 4[EDX]
		test	EAX,EAX
		je	L468
		mov	ECX,040h[ESI]
		mov	EDX,014h[ECX]
		push	dword ptr 8[EDX]
		push	offset FLAT:_DATA[080h]
		push	ESI
		call	near ptr ?error@Dsymbol@@QAAXPBDZZ
		call	near ptr ?fatal@@YAXXZ
		add	ESP,0Ch
L468:		push	018h
		call	near ptr ??2@YAPAXI@Z
		add	ESP,4
		mov	EBX,EAX
		test	EAX,EAX
		je	L482
		mov	ECX,EBX
		push	EDI
		call	near ptr ??0File@@QAE@PAUFileName@@@Z
		mov	EBX,EAX
L482:		mov	048h[ESI],EBX
		pop	EDI
		pop	ESI
		pop	EBP
		pop	EBX
		pop	EAX
		ret
		nop
		nop
		nop
		nop
		nop
?deleteObjFile@Module@@QAEXXZ:
		push	ECX
		cmp	byte ptr ?global@@3UGlobal@@A[040h],0
		je	L4A2
		mov	ECX,044h[ECX]
		call	near ptr ?remove@File@@QAEXXZ
L4A2:		mov	EAX,[ESP]
		mov	EDX,050h[EAX]
		test	EDX,EDX
		je	L4B3
		mov	ECX,EDX
		call	near ptr ?remove@File@@QAEXXZ
L4B3:		pop	EAX
		ret
??1Module@@UAE@XZ:
		push	EBX
		mov	EBX,ECX
		mov	dword ptr [ECX],offset FLAT:??_7Module@@6B@
		lea	ECX,090h[EBX]
		call	near ptr ??1Array@@UAE@XZ
		mov	dword ptr [EBX],offset FLAT:??_7Package@@6B@
		mov	dword ptr [EBX],offset FLAT:??_7ScopeDsymbol@@6B@
		mov	dword ptr [EBX],offset FLAT:??_7Dsymbol@@6B@
		mov	dword ptr [EBX],offset FLAT:??_7Object@@6B@
		pop	EBX
		ret
?kind@Module@@UAEPBDXZ:
		push	ECX
		mov	EAX,offset FLAT:_DATA[0B4h]
		pop	ECX
		ret
		nop
		nop
		nop
		nop
		nop
?load@Module@@SAPAU1@ULoc@@PAUArray@@PAUIdentifier@@@Z:
		sub	ESP,024h
		mov	ECX,034h[ESP]
		mov	EAX,[ECX]
		push	EBX
		mov	EBX,034h[ESP]
		push	EBP
		push	ESI
		push	EDI
		call	dword ptr 014h[EAX]
		mov	EBP,EAX
		test	EBX,EBX
		je	L571
		cmp	dword ptr 4[EBX],0
		je	L571
		lea	ECX,014h[ESP]
		call	near ptr ??0OutBuffer@@QAE@XZ
		xor	ESI,ESI
		cmp	4[EBX],ESI
		je	L548
L520:		mov	EDX,8[EBX]
		mov	EDI,[ESI*4][EDX]
		mov	EDX,[EDI]
		mov	ECX,EDI
		call	dword ptr 014h[EDX]
		push	EAX
		lea	ECX,018h[ESP]
		call	near ptr ?writestring@OutBuffer@@QAEXPBD@Z
		push	05Ch
		lea	ECX,018h[ESP]
		call	near ptr ?writeByte@OutBuffer@@QAEXI@Z
		inc	ESI
		cmp	4[EBX],ESI
		ja	L520
L548:		push	EBP
		lea	ECX,018h[ESP]
		call	near ptr ?writestring@OutBuffer@@QAEXPBD@Z
		push	0
		lea	ECX,018h[ESP]
		call	near ptr ?writeByte@OutBuffer@@QAEXI@Z
		lea	ECX,014h[ESP]
		call	near ptr ?extractData@OutBuffer@@QAEPAXXZ
		mov	EBP,EAX
		lea	ECX,014h[ESP]
		call	near ptr ??1OutBuffer@@UAE@XZ
L571:		push	0F4h
		call	near ptr ??2@YAPAXI@Z
		add	ESP,4
		test	EAX,EAX
		mov	024h[ESP],EAX
		je	L59A
		mov	ECX,EAX
		push	0
		push	0
		push	dword ptr 04Ch[ESP]
		push	EBP
		call	near ptr ??0Module@@QAE@PADPAUIdentifier@@HH@Z
		mov	024h[ESP],EAX
L59A:		mov	ECX,024h[ESP]
		mov	EAX,038h[ESP]
		mov	01Ch[ECX],EAX
		mov	EDX,03Ch[ESP]
		mov	020h[ECX],EDX
		mov	dword ptr 028h[ESP],0
		push	dword ptr ?global@@3UGlobal@@A[01Ch]
		push	EBP
		call	near ptr ?forceExt@FileName@@SAPAU1@PBD0@Z
		mov	ESI,EAX
		push	dword ptr ?global@@3UGlobal@@A
		push	EBP
		call	near ptr ?forceExt@FileName@@SAPAU1@PBD0@Z
		mov	EDX,[ESI]
		mov	EDI,EAX
		mov	ECX,ESI
		call	dword ptr 014h[EDX]
		mov	EDX,[EDI]
		mov	ECX,EDI
		mov	03Ch[ESP],EAX
		call	dword ptr 014h[EDX]
		mov	040h[ESP],EAX
		add	ESP,010h
		push	dword ptr 02Ch[ESP]
		call	near ptr ?exists@FileName@@SAHPBD@Z
		add	ESP,4
		test	EAX,EAX
		je	L606
		mov	ESI,02Ch[ESP]
		mov	028h[ESP],ESI
		jmp	near ptr L6B6
L606:		push	dword ptr 030h[ESP]
		call	near ptr ?exists@FileName@@SAHPBD@Z
		add	ESP,4
		test	EAX,EAX
		je	L623
		mov	EAX,030h[ESP]
		mov	028h[ESP],EAX
		jmp	near ptr L6B6
L623:		push	EBP
		call	near ptr ?absolute@FileName@@SAHPBD@Z
		add	ESP,4
		test	EAX,EAX
		jne	L6B6
		cmp	dword ptr ?global@@3UGlobal@@A[030h],0
		je	L6B6
		mov	ECX,?global@@3UGlobal@@A[030h]
		xor	ESI,ESI
		cmp	4[ECX],ESI
		je	L6B6
L64A:		push	dword ptr 02Ch[ESP]
		mov	EDX,?global@@3UGlobal@@A[030h]
		mov	ECX,8[EDX]
		mov	EBP,[ESI*4][ECX]
		push	EBP
		call	near ptr ?combine@FileName@@SAPADPBD0@Z
		add	ESP,8
		mov	EDI,EAX
		push	EAX
		call	near ptr ?exists@FileName@@SAHPBD@Z
		add	ESP,4
		test	EAX,EAX
		jne	L699
		push	EDI
		mov	ECX,offset FLAT:?mem@@3UMem@@A
		call	near ptr ?free@Mem@@QAEXPAX@Z
		push	dword ptr 030h[ESP]
		push	EBP
		call	near ptr ?combine@FileName@@SAPADPBD0@Z
		add	ESP,8
		mov	EDI,EAX
		push	EAX
		call	near ptr ?exists@FileName@@SAHPBD@Z
		add	ESP,4
		test	EAX,EAX
		je	L69F
L699:		mov	028h[ESP],EDI
		jmp short	L6B6
L69F:		push	EDI
		mov	ECX,offset FLAT:?mem@@3UMem@@A
		call	near ptr ?free@Mem@@QAEXPAX@Z
		mov	EDX,?global@@3UGlobal@@A[030h]
		inc	ESI
		cmp	4[EDX],ESI
		ja	L64A
L6B6:		cmp	dword ptr 028h[ESP],0
		je	L6E1
		push	018h
		call	near ptr ??2@YAPAXI@Z
		add	ESP,4
		mov	ESI,EAX
		test	EAX,EAX
		je	L6DA
		mov	ECX,ESI
		push	dword ptr 028h[ESP]
		call	near ptr ??0File@@QAE@PAD@Z
		mov	ESI,EAX
L6DA:		mov	EDX,024h[ESP]
		mov	040h[EDX],ESI
L6E1:		cmp	byte ptr ?global@@3UGlobal@@A[048h],0
		je	L749
		push	offset FLAT:_DATA[0BCh]
		call	near ptr _printf
		add	ESP,4
		test	EBX,EBX
		je	L723
		xor	ESI,ESI
		cmp	4[EBX],ESI
		je	L723
L702:		mov	ECX,8[EBX]
		mov	EDI,[ESI*4][ECX]
		mov	EDX,[EDI]
		mov	ECX,EDI
		call	dword ptr 014h[EDX]
		push	EAX
		push	offset FLAT:_DATA[0C8h]
		call	near ptr _printf
		inc	ESI
		add	ESP,8
		cmp	4[EBX],ESI
		ja	L702
L723:		mov	EAX,024h[ESP]
		mov	ECX,040h[EAX]
		mov	ESI,[ECX]
		mov	EBX,044h[ESP]
		call	dword ptr 014h[ESI]
		mov	EDX,[EBX]
		mov	ECX,EBX
		push	EAX
		call	dword ptr 014h[EDX]
		push	EAX
		push	offset FLAT:_DATA[0CCh]
		call	near ptr _printf
		add	ESP,0Ch
L749:		mov	EBX,024h[ESP]
		mov	ECX,EBX
		push	dword ptr 03Ch[ESP]
		push	dword ptr 03Ch[ESP]
		call	near ptr ?read@Module@@QAEXULoc@@@Z
		mov	ECX,EBX
		call	near ptr ?parse@Module@@QAEXXZ
		mov	EAX,EBX
		pop	EDI
		pop	ESI
		pop	EBP
		pop	EBX
		add	ESP,024h
		ret
		nop
		nop
		nop
?read@Module@@QAEXULoc@@@Z:
		push	ECX
		push	ECX
		mov	ECX,040h[ECX]
		push	EBX
		push	ESI
		push	EDI
		call	near ptr ?read@File@@QAEHXZ
		test	EAX,EAX
		je	L81B
		mov	EAX,010h[ESP]
		mov	ECX,040h[EAX]
		mov	EDX,[ECX]
		call	dword ptr 014h[EDX]
		push	EAX
		push	offset FLAT:_DATA[0D8h]
		push	dword ptr 024h[ESP]
		push	dword ptr 024h[ESP]
		push	dword ptr 020h[ESP]
		call	near ptr ?error@Dsymbol@@QAAXULoc@@PBDZZ
		add	ESP,014h
		cmp	dword ptr ?global@@3UGlobal@@A[0100h],0
		jne	L816
		cmp	dword ptr ?global@@3UGlobal@@A[030h],0
		je	L7F7
		mov	ESI,?global@@3UGlobal@@A[030h]
		xor	EBX,EBX
		cmp	4[ESI],EBX
		je	L816
L7CA:		mov	EDX,?global@@3UGlobal@@A[030h]
		mov	EDI,8[EDX]
		push	[EBX*4][EDI]
		push	EBX
		push	offset FLAT:_DATA[0100h]
		push	offset FLAT:__iob[040h]
		call	near ptr _fprintf
		add	ESP,010h
		mov	ECX,?global@@3UGlobal@@A[030h]
		inc	EBX
		cmp	4[ECX],EBX
		ja	L7CA
		jmp short	L816
L7F7:		mov	EBX,010h[ESP]
		mov	ECX,040h[EBX]
		mov	EAX,[ECX]
		call	dword ptr 014h[EAX]
		push	EAX
		push	offset FLAT:_DATA[0118h]
		push	offset FLAT:__iob[040h]
		call	near ptr _fprintf
		add	ESP,0Ch
L816:		call	near ptr ?fatal@@YAXXZ
L81B:		pop	EDI
		pop	ESI
		pop	EBX
		add	ESP,8
		ret	8
?parse@Module@@QAEXXZ:
		sub	ESP,017Ch
		mov	EDX,040h[ECX]
		push	EBX
		push	EBP
		push	ESI
		push	EDI
		mov	EDI,ECX
		mov	ECX,014h[EDX]
		mov	EDX,[ECX]
		call	dword ptr 014h[EDX]
		mov	ECX,040h[EDI]
		mov	EBP,0Ch[ECX]
		mov	014h[ESP],EAX
		mov	EBX,8[ECX]
		cmp	EBP,2
		jb	LBED
		mov	dword ptr 01Ch[ESP],1
		mov	DL,[EBX]
		mov	ECX,0FFh
		cmp	DL,CL
		jne	LB18
		cmp	byte ptr 1[EBX],0FEh
		jne	LB18
		cmp	EBP,4
		jb	LBB6
		cmp	byte ptr 2[EBX],0
		jne	LBB6
		cmp	byte ptr 3[EBX],0
		je	LB8C
		jmp	near ptr LBB6
L894:		mov	018h[ESP],ESI
		lea	ECX,020h[ESP]
		call	near ptr ??0OutBuffer@@QAE@XZ
		mov	EDX,EBP
		shr	EDX,2
		test	EBP,3
		lea	ECX,[EDX*4][EBX]
		mov	ESI,EBX
		mov	030h[ESP],ECX
		je	L8CB
		push	EBP
		push	offset FLAT:_DATA[0144h]
		push	EDI
		call	near ptr ?error@Dsymbol@@QAAXPBDZZ
		call	near ptr ?fatal@@YAXXZ
		add	ESP,0Ch
L8CB:		mov	EDX,EBP
		shr	EDX,2
		push	EDX
		lea	ECX,024h[ESP]
		call	near ptr ?reserve@OutBuffer@@QAEXI@Z
		mov	EDX,01Ch[ESP]
		shl	EDX,2
		add	ESI,EDX
		cmp	ESI,030h[ESP]
		jae	L957
L8E9:		cmp	dword ptr 018h[ESP],0
		je	L8F4
		mov	EBP,[ESI]
		jmp short	L912
L8F4:		movzx	EBP,byte ptr [ESI]
		shl	EBP,018h
		movzx	ECX,byte ptr 1[ESI]
		shl	ECX,010h
		movzx	EDX,byte ptr 2[ESI]
		shl	EDX,8
		movzx	EAX,byte ptr 3[ESI]
		or	EDX,EAX
		or	ECX,EDX
		or	EBP,ECX
L912:		mov	ECX,EBP
		test	ECX,0FFFFFF80h
		je	L944
		cmp	EBP,010FFFFh
		jbe	L938
		push	EBP
		push	offset FLAT:_DATA[0168h]
		push	EDI
		call	near ptr ?error@Dsymbol@@QAAXPBDZZ
		call	near ptr ?fatal@@YAXXZ
		add	ESP,0Ch
L938:		push	EBP
		lea	ECX,024h[ESP]
		call	near ptr ?writeUTF8@OutBuffer@@QAEXI@Z
		jmp short	L94E
L944:		push	EBP
		lea	ECX,024h[ESP]
		call	near ptr ?writeByte@OutBuffer@@QAEXI@Z
L94E:		add	ESI,4
		cmp	ESI,030h[ESP]
		jb	L8E9
L957:		push	0
		lea	ECX,024h[ESP]
		call	near ptr ?writeByte@OutBuffer@@QAEXI@Z
		mov	EBP,028h[ESP]
		dec	EBP
		lea	ECX,020h[ESP]
		call	near ptr ?extractData@OutBuffer@@QAEPAXXZ
		mov	EBX,EAX
		lea	ECX,020h[ESP]
		call	near ptr ??1OutBuffer@@UAE@XZ
		jmp	near ptr LBED
L980:		mov	018h[ESP],ESI
		lea	ECX,034h[ESP]
		call	near ptr ??0OutBuffer@@QAE@XZ
		mov	EDX,EBP
		shr	EDX,1
		test	EBP,1
		lea	ECX,[EDX*2][EBX]
		mov	ESI,EBX
		mov	044h[ESP],ECX
		je	L9B6
		push	EBP
		push	offset FLAT:_DATA[0190h]
		push	EDI
		call	near ptr ?error@Dsymbol@@QAAXPBDZZ
		call	near ptr ?fatal@@YAXXZ
		add	ESP,0Ch
L9B6:		mov	EDX,EBP
		shr	EDX,1
		push	EDX
		lea	ECX,038h[ESP]
		call	near ptr ?reserve@OutBuffer@@QAEXI@Z
		mov	EDX,01Ch[ESP]
		add	EDX,EDX
		add	ESI,EDX
		cmp	ESI,044h[ESP]
		jae	LAEF
L9D6:		cmp	dword ptr 018h[ESP],0
		je	L9E8
		mov	BX,[ESI]
		and	EBX,0FFFFh
		jmp short	L9F4
L9E8:		movzx	EBX,byte ptr [ESI]
		shl	EBX,8
		movzx	ECX,byte ptr 1[ESI]
		or	EBX,ECX
L9F4:		test	EBX,0FFFFFF80h
		je	LAD8
		cmp	EBX,0D800h
		jb	LA82
		cmp	EBX,0DBFFh
		ja	LA82
		add	ESI,2
		cmp	ESI,044h[ESP]
		jbe	LA2D
		push	EBX
		push	offset FLAT:_DATA[01B4h]
		push	EDI
		call	near ptr ?error@Dsymbol@@QAAXPBDZZ
		call	near ptr ?fatal@@YAXXZ
		add	ESP,0Ch
LA2D:		cmp	dword ptr 018h[ESP],0
		je	LA3F
		mov	BP,[ESI]
		and	EBP,0FFFFh
		jmp short	LA4B
LA3F:		movzx	EBP,byte ptr [ESI]
		shl	EBP,8
		movzx	EDX,byte ptr 1[ESI]
		or	EBP,EDX
LA4B:		cmp	EBP,0DC00h
		jb	LA5B
		cmp	EBP,0DFFFh
		jbe	LA6F
LA5B:		push	EBP
		push	offset FLAT:_DATA[01DCh]
		push	EDI
		call	near ptr ?error@Dsymbol@@QAAXPBDZZ
		call	near ptr ?fatal@@YAXXZ
		add	ESP,0Ch
LA6F:		lea	EBX,-0D7C0h[EBX]
		shl	EBX,0Ah
		lea	ECX,-0DC00h[EBP]
		or	EBX,ECX
		jmp short	LACC
LA82:		cmp	EBX,0DC00h
		jb	LAA8
		cmp	EBX,0DFFFh
		ja	LAA8
		push	EBX
		push	offset FLAT:_DATA[020Ch]
		push	EDI
		call	near ptr ?error@Dsymbol@@QAAXPBDZZ
		call	near ptr ?fatal@@YAXXZ
		add	ESP,0Ch
		jmp short	LACC
LAA8:		cmp	EBX,0FFFEh
		je	LAB8
		cmp	EBX,0FFFFh
		jne	LACC
LAB8:		push	EBX
		push	offset FLAT:_DATA[0234h]
		push	EDI
		call	near ptr ?error@Dsymbol@@QAAXPBDZZ
		call	near ptr ?fatal@@YAXXZ
		add	ESP,0Ch
LACC:		push	EBX
		lea	ECX,038h[ESP]
		call	near ptr ?writeUTF8@OutBuffer@@QAEXI@Z
		jmp short	LAE2
LAD8:		push	EBX
		lea	ECX,038h[ESP]
		call	near ptr ?writeByte@OutBuffer@@QAEXI@Z
LAE2:		add	ESI,2
		cmp	ESI,044h[ESP]
		jb	L9D6
LAEF:		push	0
		lea	ECX,038h[ESP]
		call	near ptr ?writeByte@OutBuffer@@QAEXI@Z
		mov	EBP,03Ch[ESP]
		dec	EBP
		lea	ECX,034h[ESP]
		call	near ptr ?extractData@OutBuffer@@QAEPAXXZ
		mov	EBX,EAX
		lea	ECX,034h[ESP]
		call	near ptr ??1OutBuffer@@UAE@XZ
		jmp	near ptr LBED
LB18:		mov	EAX,0FEh
		cmp	DL,AL
		jne	LB2A
		cmp	1[EBX],CL
		je	LBC5
LB2A:		cmp	EBP,4
		jb	LB43
		test	DL,DL
		jne	LB43
		cmp	byte ptr 1[EBX],0
		jne	LB43
		cmp	2[EBX],AL
		jne	LB43
		cmp	3[EBX],CL
		je	LBA4
LB43:		cmp	EBP,3
		jb	LB64
		cmp	DL,0EFh
		jne	LB64
		cmp	byte ptr 1[EBX],0BBh
		jne	LB64
		cmp	byte ptr 2[EBX],0BFh
		jne	LB64
		add	EBX,3
		add	EBP,0FFFFFFFDh
		jmp	near ptr LBED
LB64:		mov	dword ptr 01Ch[ESP],0
		cmp	EBP,4
		jb	LBAB
		cmp	byte ptr 1[EBX],0
		je	LB7B
		xor	ECX,ECX
		jmp short	LB7E
LB7B:		xor	ECX,ECX
		inc	ECX
LB7E:		je	LB96
		cmp	byte ptr 2[EBX],0
		jne	LB96
		cmp	byte ptr 3[EBX],0
		jne	LB96
LB8C:		mov	ESI,1
		jmp	near ptr L894
LB96:		test	DL,DL
		jne	LBAB
		test	CL,CL
		je	LBAB
		cmp	byte ptr 2[EBX],0
		jne	LBAB
LBA4:		xor	ESI,ESI
		jmp	near ptr L894
LBAB:		cmp	EBP,2
		jb	LBCC
		cmp	byte ptr 1[EBX],0
		jne	LBC0
LBB6:		mov	ESI,1
		jmp	near ptr L980
LBC0:		cmp	byte ptr [EBX],0
		jne	LBCC
LBC5:		xor	ESI,ESI
		jmp	near ptr L980
LBCC:		mov	DL,[EBX]
		cmp	DL,080h
		jb	LBED
		and	EDX,0FFh
		push	EDX
		push	offset FLAT:_DATA[0250h]
		push	EDI
		call	near ptr ?error@Dsymbol@@QAAXPBDZZ
		call	near ptr ?fatal@@YAXXZ
		add	ESP,0Ch
LBED:		cmp	EBP,4
		jb	LC29
		push	4
		push	offset FLAT:_DATA[0290h]
		push	EBX
		call	near ptr _memcmp
		add	ESP,0Ch
		test	EAX,EAX
		jne	LC29
		mov	dword ptr 060h[EDI],1
		lea	EDX,4[EBX]
		mov	018h[EDI],EDX
		cmp	dword ptr 050h[EDI],0
		jne	LDB3
		mov	ECX,EDI
		call	near ptr ?setDocfile@Module@@QAEXXZ
		jmp	near ptr LDB3
LC29:		cmp	dword ptr 05Ch[EDI],0
		je	LC67
		push	010h
		call	near ptr ??2@YAPAXI@Z
		add	ESP,4
		mov	ESI,EAX
		test	EAX,EAX
		je	LC48
		mov	ECX,ESI
		call	near ptr ??0OutBuffer@@QAE@XZ
		mov	ESI,EAX
LC48:		push	EBP
		push	EBX
		push	dword ptr 01Ch[ESP]
		lea	ECX,054h[ESP]
		call	near ptr ??0Html@@QAE@PBDPAEI@Z
		push	ESI
		lea	ECX,04Ch[ESP]
		call	near ptr ?extractCode@Html@@QAEXPAUOutBuffer@@@Z
		mov	EBX,4[ESI]
		mov	EBP,8[ESI]
LC67:		mov	EDX,050h[EDI]
		neg	EDX
		sbb	EDX,EDX
		neg	EDX
		push	EDX
		push	EBP
		push	EBX
		push	EDI
		lea	ECX,074h[ESP]
		call	near ptr ??0Parser@@QAE@PAUModule@@PAEIH@Z
		lea	ECX,064h[ESP]
		call	near ptr ?nextToken@Lexer@@QAE?AW4TOK@@XZ
		lea	ECX,064h[ESP]
		call	near ptr ?parseModule@Parser@@QAEPAUArray@@XZ
		mov	028h[EDI],EAX
		mov	EDX,0B4h[ESP]
		mov	03Ch[EDI],EDX
		mov	ECX,068h[ESP]
		mov	058h[EDI],ECX
		cmp	dword ptr 03Ch[EDI],0
		je	LCC9
		push	0
		mov	ECX,03Ch[EDI]
		mov	EDX,[ECX]
		mov	4[EDI],EDX
		lea	ECX,0Ch[EDI]
		mov	EDX,03Ch[EDI]
		push	ECX
		push	dword ptr 4[EDX]
		call	near ptr ?resolve@Package@@SAPAUDsymbolTable@@PAUArray@@PAPAUDsymbol@@PAPAU1@@Z
		mov	ESI,EAX
		add	ESP,0Ch
		jmp short	LCF2
LCC9:		mov	ECX,4[EDI]
		mov	EDX,[ECX]
		mov	ESI,?modules@Module@@2PAUDsymbolTable@@A
		call	dword ptr 014h[EDX]
		push	EAX
		call	near ptr ?isValidIdentifier@Lexer@@SAHPAD@Z
		add	ESP,4
		test	EAX,EAX
		jne	LCF2
		push	offset FLAT:_DATA[0298h]
		push	EDI
		call	near ptr ?error@Dsymbol@@QAAXPBDZZ
		add	ESP,8
LCF2:		push	EDI
		mov	ECX,ESI
		call	near ptr ?insert@DsymbolTable@@QAEPAUDsymbol@@PAU2@@Z
		test	EAX,EAX
		jne	LDA8
		push	dword ptr 4[EDI]
		mov	ECX,ESI
		call	near ptr ?lookup@DsymbolTable@@QAEPAUDsymbol@@PAUIdentifier@@@Z
		mov	EBX,EAX
		test	EAX,EAX
		jne	LD26
		push	0283h
		push	offset FLAT:_DATA[02E4h]
		push	offset FLAT:_DATA[02F0h]
		call	near ptr __assert
LD26:		mov	EDX,[EBX]
		mov	ECX,EBX
		call	dword ptr 0CCh[EDX]
		mov	EBP,EAX
		test	EAX,EAX
		je	LD62
		mov	ECX,040h[EBP]
		mov	EAX,[ECX]
		call	dword ptr 014h[EAX]
		mov	EBX,0[EBP]
		mov	ECX,EBP
		push	EAX
		call	dword ptr 014h[EBX]
		push	EAX
		push	dword ptr 01Ch[ESP]
		push	offset FLAT:_DATA[02F8h]
		push	dword ptr 020h[EDI]
		push	dword ptr 01Ch[EDI]
		push	EDI
		call	near ptr ?error@Dsymbol@@QAAXULoc@@PBDZZ
		add	ESP,01Ch
		jmp short	LDB3
LD62:		mov	EDX,[EBX]
		mov	ECX,EBX
		call	dword ptr 0C8h[EDX]
		mov	ESI,EAX
		test	EAX,EAX
		jne	LD86
		push	028Bh
		push	offset FLAT:_DATA[02E4h]
		push	offset FLAT:_DATA[0334h]
		call	near ptr __assert
LD86:		mov	EDX,[ESI]
		mov	ECX,ESI
		call	dword ptr 014h[EDX]
		push	EAX
		push	dword ptr 018h[ESP]
		push	offset FLAT:_DATA[0338h]
		push	dword ptr 020h[EDI]
		push	dword ptr 01Ch[EDI]
		push	EDI
		call	near ptr ?error@Dsymbol@@QAAXULoc@@PBDZZ
		add	ESP,018h
		jmp short	LDB3
LDA8:		push	EDI
		mov	ECX,offset FLAT:?amodules@Module@@2UArray@@A
		call	near ptr ?push@Array@@QAEXPAX@Z
LDB3:		pop	EDI
		pop	ESI
		pop	EBP
		pop	EBX
		add	ESP,017Ch
		ret
		nop
		nop
?importAll@Module@@UAEXPAUScope@@@Z:
		sub	ESP,0Ch
		push	EBX
		mov	EBX,ECX
		push	EBP
		push	ESI
		push	EDI
		cmp	dword ptr 024h[ECX],0
		jne	LEF7
		push	EBX
		call	near ptr ?createGlobal@Scope@@SAPAU1@PAUModule@@@Z
		add	ESP,4
		mov	ECX,4[EBX]
		cmp	ECX,?object@Id@@2PAUIdentifier@@A
		mov	EDI,EAX
		je	LE4A
		mov	EDX,028h[EBX]
		cmp	dword ptr 4[EDX],0
		je	LE02
		mov	ECX,8[EDX]
		mov	EDX,[ECX]
		mov	ECX,4[EDX]
		cmp	ECX,?object@Id@@2PAUIdentifier@@A
		je	LE4A
LE02:		push	07Ch
		call	near ptr ??2@YAPAXI@Z
		add	ESP,4
		mov	ESI,EAX
		test	EAX,EAX
		je	LE41
		mov	ECX,ESI
		push	0
		push	0
		push	dword ptr ?object@Id@@2PAUIdentifier@@A
		push	0
		mov	dword ptr 028h[ESP],0
		mov	dword ptr 024h[ESP],0
		mov	EDX,028h[ESP]
		mov	EAX,024h[ESP]
		push	EDX
		push	EAX
		call	near ptr ??0Import@@QAE@ULoc@@PAUArray@@PAUIdentifier@@2H@Z
		mov	ESI,EAX
LE41:		mov	ECX,028h[EBX]
		push	ESI
		call	near ptr ?shift@Array@@QAEXPAX@Z
LE4A:		cmp	dword ptr 02Ch[EBX],0
		jne	LE97
		push	8
		call	near ptr ??2@YAPAXI@Z
		add	ESP,4
		mov	EBP,EAX
		test	EAX,EAX
		je	LE69
		mov	ECX,EBP
		call	near ptr ??0DsymbolTable@@QAE@XZ
		mov	EBP,EAX
LE69:		mov	EDX,028h[EBX]
		xor	ESI,ESI
		mov	02Ch[EBX],EBP
		cmp	4[EDX],ESI
		je	LE97
LE76:		push	1
		mov	ECX,028h[EBX]
		mov	EDX,8[ECX]
		push	dword ptr 8[EDI]
		mov	EBP,[ESI*4][EDX]
		mov	EDX,0[EBP]
		push	0
		mov	ECX,EBP
		call	dword ptr 030h[EDX]
		mov	ECX,028h[EBX]
		inc	ESI
		cmp	4[ECX],ESI
		ja	LE76
LE97:		push	EDI
		mov	EDX,[EBX]
		mov	ECX,EBX
		call	dword ptr 034h[EDX]
		mov	ECX,028h[EBX]
		xor	ESI,ESI
		cmp	4[ECX],ESI
		je	LEC4
LEA9:		mov	EDX,028h[EBX]
		mov	ECX,8[EDX]
		mov	EBP,[ESI*4][ECX]
		push	EDI
		mov	EDX,0[EBP]
		mov	ECX,EBP
		call	dword ptr 034h[EDX]
		mov	ECX,028h[EBX]
		inc	ESI
		cmp	4[ECX],ESI
		ja	LEA9
LEC4:		mov	EDX,028h[EBX]
		xor	ESI,ESI
		cmp	4[EDX],ESI
		je	LEE9
LECE:		mov	ECX,028h[EBX]
		mov	EDX,8[ECX]
		mov	EBP,[ESI*4][EDX]
		push	EDI
		mov	EDX,0[EBP]
		mov	ECX,EBP
		call	dword ptr 038h[EDX]
		mov	ECX,028h[EBX]
		inc	ESI
		cmp	4[ECX],ESI
		ja	LECE
LEE9:		mov	ECX,EDI
		call	near ptr ?pop@Scope@@QAEPAU1@XZ
		mov	ECX,EAX
		call	near ptr ?pop@Scope@@QAEPAU1@XZ
LEF7:		pop	EDI
		pop	ESI
		pop	EBP
		pop	EBX
		add	ESP,0Ch
		ret	4
?semantic@Module@@QAEXXZ:
		push	ECX
		push	EBX
		mov	EBX,ECX
		push	EBP
		push	ESI
		push	EDI
		cmp	dword ptr 07Ch[ECX],0
		jne	LF9F
		mov	dword ptr 07Ch[EBX],1
		mov	EDI,024h[EBX]
		test	EDI,EDI
		jne	LF33
		push	offset FLAT:_DATA[0364h]
		call	near ptr _printf
		push	EBX
		call	near ptr ?createGlobal@Scope@@SAPAU1@PAUModule@@@Z
		add	ESP,8
LF33:		mov	ECX,028h[EBX]
		xor	ESI,ESI
		cmp	4[ECX],ESI
		je	LF58
LF3D:		mov	EDX,028h[EBX]
		mov	ECX,8[EDX]
		mov	EBP,[ESI*4][ECX]
		push	EDI
		mov	EDX,0[EBP]
		mov	ECX,EBP
		call	dword ptr 03Ch[EDX]
		mov	ECX,028h[EBX]
		inc	ESI
		cmp	4[ECX],ESI
		ja	LF3D
LF58:		mov	EDX,028h[EBX]
		xor	ESI,ESI
		cmp	4[EDX],ESI
		je	LF82
LF62:		mov	ECX,028h[EBX]
		mov	EDX,8[ECX]
		mov	EBP,[ESI*4][EDX]
		push	EDI
		mov	EDX,0[EBP]
		mov	ECX,EBP
		call	dword ptr 040h[EDX]
		call	near ptr ?runDeferredSemantic@Module@@SAXXZ
		mov	ECX,028h[EBX]
		inc	ESI
		cmp	4[ECX],ESI
		ja	LF62
LF82:		cmp	dword ptr 024h[EBX],0
		jne	LF96
		mov	ECX,EDI
		call	near ptr ?pop@Scope@@QAEPAU1@XZ
		mov	ECX,EAX
		call	near ptr ?pop@Scope@@QAEPAU1@XZ
LF96:		mov	EAX,07Ch[EBX]
		mov	080h[EBX],EAX
LF9F:		pop	EDI
		pop	ESI
		pop	EBP
		pop	EBX
		pop	EAX
		ret
?semantic2@Module@@QAEXXZ:
		push	ECX
		push	EBX
		push	EBP
		push	ESI
		mov	ESI,ECX
		push	EDI
		cmp	dword ptr ?deferred@Module@@2UArray@@A[04h],0
		je	LFE4
		xor	EBX,EBX
		cmp	?deferred@Module@@2UArray@@A[04h],EBX
		je	L1052
LFC3:		push	offset FLAT:_DATA[036Ch]
		mov	EDX,?deferred@Module@@2UArray@@A[08h]
		push	[EBX*4][EDX]
		call	near ptr ?error@Dsymbol@@QAAXPBDZZ
		inc	EBX
		add	ESP,8
		cmp	EBX,?deferred@Module@@2UArray@@A[04h]
		jb	LFC3
		jmp short	L1052
LFE4:		mov	EAX,07Ch[ESI]
		mov	EDX,2
		cmp	EAX,EDX
		jge	L1052
		cmp	EAX,1
		je	L1009
		push	0325h
		push	offset FLAT:_DATA[02E4h]
		push	offset FLAT:_DATA[03A0h]
		call	near ptr __assert
L1009:		mov	07Ch[ESI],EDX
		push	ESI
		call	near ptr ?createGlobal@Scope@@SAPAU1@PAUModule@@@Z
		add	ESP,4
		mov	ECX,028h[ESI]
		xor	EBX,EBX
		mov	EBP,EAX
		cmp	4[ECX],EBX
		je	L103B
L1021:		mov	EDX,028h[ESI]
		mov	ECX,8[EDX]
		mov	EDI,[EBX*4][ECX]
		push	EBP
		mov	EDX,[EDI]
		mov	ECX,EDI
		call	dword ptr 044h[EDX]
		mov	ECX,028h[ESI]
		inc	EBX
		cmp	4[ECX],EBX
		ja	L1021
L103B:		mov	ECX,EBP
		call	near ptr ?pop@Scope@@QAEPAU1@XZ
		mov	ECX,EAX
		call	near ptr ?pop@Scope@@QAEPAU1@XZ
		mov	EAX,07Ch[ESI]
		mov	080h[ESI],EAX
L1052:		pop	EDI
		pop	ESI
		pop	EBP
		pop	EBX
		pop	EAX
		ret
?semantic3@Module@@QAEXXZ:
		push	ECX
		mov	EAX,07Ch[ECX]
		mov	EDX,3
		push	EBX
		cmp	EAX,EDX
		push	EBP
		push	ESI
		mov	ESI,ECX
		push	EDI
		jge	L10CD
		cmp	EAX,2
		je	L1084
		push	0342h
		push	offset FLAT:_DATA[02E4h]
		push	offset FLAT:_DATA[03B8h]
		call	near ptr __assert
L1084:		mov	07Ch[ESI],EDX
		push	ESI
		call	near ptr ?createGlobal@Scope@@SAPAU1@PAUModule@@@Z
		add	ESP,4
		mov	ECX,028h[ESI]
		xor	EBX,EBX
		mov	EBP,EAX
		cmp	4[ECX],EBX
		je	L10B6
L109C:		mov	EDX,028h[ESI]
		mov	ECX,8[EDX]
		mov	EDI,[EBX*4][ECX]
		push	EBP
		mov	EDX,[EDI]
		mov	ECX,EDI
		call	dword ptr 048h[EDX]
		mov	ECX,028h[ESI]
		inc	EBX
		cmp	4[ECX],EBX
		ja	L109C
L10B6:		mov	ECX,EBP
		call	near ptr ?pop@Scope@@QAEPAU1@XZ
		mov	ECX,EAX
		call	near ptr ?pop@Scope@@QAEPAU1@XZ
		mov	EAX,07Ch[ESI]
		mov	080h[ESI],EAX
L10CD:		pop	EDI
		pop	ESI
		pop	EBP
		pop	EBX
		pop	EAX
		ret
?inlineScan@Module@@UAEXXZ:
		push	EBX
		mov	EAX,07Ch[ECX]
		mov	EDX,4
		push	ESI
		mov	ESI,ECX
		cmp	EAX,EDX
		push	EDI
		jge	L112C
		cmp	EAX,3
		je	L10FD
		push	035Dh
		push	offset FLAT:_DATA[02E4h]
		push	offset FLAT:_DATA[03D0h]
		call	near ptr __assert
L10FD:		xor	EBX,EBX
		mov	07Ch[ESI],EDX
		mov	EDX,028h[ESI]
		cmp	4[EDX],EBX
		je	L1123
L110A:		mov	ECX,028h[ESI]
		mov	EDX,8[ECX]
		mov	EDI,[EBX*4][EDX]
		mov	EDX,[EDI]
		mov	ECX,EDI
		call	dword ptr 04Ch[EDX]
		mov	ECX,028h[ESI]
		inc	EBX
		cmp	4[ECX],EBX
		ja	L110A
L1123:		mov	EAX,07Ch[ESI]
		mov	080h[ESI],EAX
L112C:		pop	EDI
		pop	ESI
		pop	EBX
		ret
?gensymfile@Module@@QAEXXZ:
		sub	ESP,048h
		push	EBX
		push	ESI
		mov	ESI,ECX
		push	EDI
		lea	ECX,010h[ESP]
		call	near ptr ??0OutBuffer@@QAE@XZ
		push	034h
		push	0
		lea	EDX,028h[ESP]
		push	EDX
		call	near ptr _memset
		mov	ECX,040h[ESI]
		mov	EDX,[ECX]
		call	dword ptr 014h[EDX]
		push	EAX
		push	offset FLAT:_DATA[03E8h]
		lea	ECX,024h[ESP]
		push	ECX
		call	near ptr ?printf@OutBuffer@@QAAXPBDZZ
		lea	ECX,028h[ESP]
		call	near ptr ?writenl@OutBuffer@@QAEXXZ
		add	ESP,018h
		mov	EDX,028h[ESI]
		xor	EBX,EBX
		cmp	4[EDX],EBX
		je	L11A0
L117D:		lea	ECX,020h[ESP]
		push	ECX
		lea	EDX,014h[ESP]
		mov	ECX,028h[ESI]
		push	EDX
		mov	EDX,8[ECX]
		mov	EDI,[EBX*4][EDX]
		mov	EDX,[EDI]
		mov	ECX,EDI
		call	dword ptr 05Ch[EDX]
		mov	ECX,028h[ESI]
		inc	EBX
		cmp	4[ECX],EBX
		ja	L117D
L11A0:		mov	EBX,04Ch[ESI]
		mov	EDI,018h[ESP]
		mov	EDX,014h[ESP]
		mov	8[EBX],EDX
		mov	0Ch[EBX],EDI
		mov	dword ptr 014h[ESP],0
		mov	ECX,04Ch[ESI]
		call	near ptr ?writev@File@@QAEXXZ
		lea	ECX,010h[ESP]
		call	near ptr ??1OutBuffer@@UAE@XZ
		pop	EDI
		pop	ESI
		pop	EBX
		add	ESP,048h
		ret
?needModuleInfo@Module@@QAEHXZ:
		push	ECX
		cmp	dword ptr 064h[ECX],0
		jne	L11E5
		cmp	byte ptr ?global@@3UGlobal@@A[063h],0
		jne	L11E5
		xor	EAX,EAX
		jmp short	L11EA
L11E5:		mov	EAX,1
L11EA:		pop	ECX
		ret
		nop
		nop
		nop
		nop
?search@Module@@UAEPAUDsymbol@@ULoc@@PAUIdentifier@@H@Z:
		push	ECX
		push	EBX
		mov	EBX,ECX
		push	EBP
		mov	EBP,01Ch[ESP]
		push	ESI
		push	EDI
		mov	EDI,020h[ESP]
		cmp	dword ptr 06Ch[EBX],0
		je	L1209
		xor	ESI,ESI
		jmp short	L1240
L1209:		cmp	070h[EBX],EDI
		jne	L1218
		cmp	078h[EBX],EBP
		jne	L1218
		mov	ESI,074h[EBX]
		jmp short	L1240
L1218:		push	EBP
		push	EDI
		push	dword ptr 024h[ESP]
		mov	dword ptr 06Ch[EBX],1
		push	dword ptr 024h[ESP]
		call	near ptr ?search@ScopeDsymbol@@UAEPAUDsymbol@@ULoc@@PAUIdentifier@@H@Z
		mov	ESI,EAX
		mov	dword ptr 06Ch[EBX],0
		mov	070h[EBX],EDI
		mov	074h[EBX],ESI
		mov	078h[EBX],EBP
L1240:		pop	EDI
		mov	EAX,ESI
		pop	ESI
		pop	EBP
		pop	EBX
		pop	ECX
		ret	010h
		nop
		nop
		nop
		nop
		nop
		nop
?symtabInsert@Module@@UAEPAUDsymbol@@PAU2@@Z:
		push	ECX
		mov	dword ptr 070h[ECX],0
		push	dword ptr 8[ESP]
		call	near ptr ?symtabInsert@ScopeDsymbol@@UAEPAUDsymbol@@PAU2@@Z
		pop	ECX
		ret	4
?clearCache@Module@@SAXXZ:
		xor	EDX,EDX
		cmp	?amodules@Module@@2UArray@@A[04h],EDX
		je	L1287
L126F:		mov	EAX,?amodules@Module@@2UArray@@A[08h]
		mov	ECX,[EDX*4][EAX]
		inc	EDX
		mov	dword ptr 070h[ECX],0
		cmp	EDX,?amodules@Module@@2UArray@@A[04h]
		jb	L126F
L1287:		ret
?addDeferredSemantic@Module@@QAEXPAUDsymbol@@@Z:
		push	ECX
		xor	EDX,EDX
		mov	ECX,8[ESP]
		cmp	?deferred@Module@@2UArray@@A[04h],EDX
		je	L12AA
L1297:		mov	EAX,?deferred@Module@@2UArray@@A[08h]
		cmp	[EDX*4][EAX],ECX
		je	L12BC
		inc	EDX
		cmp	EDX,?deferred@Module@@2UArray@@A[04h]
		jb	L1297
L12AA:		mov	8[ESP],ECX
		mov	ECX,offset FLAT:?deferred@Module@@2UArray@@A
		push	dword ptr 8[ESP]
		call	near ptr ?push@Array@@QAEXPAX@Z
L12BC:		pop	EAX
		ret	4
?runDeferredSemantic@Module@@SAXXZ:
		push	EBP
		mov	EBP,ESP
		sub	ESP,0Ch
		push	EBX
		push	ESI
		mov	dword ptr -0Ch[EBP],0Ch
		push	EDI
		cmp	dword ptr ?dprogress@Module@@2IA,0
		je	L13A9
		cmp	dword ptr ?deferred@Module@@2UArray@@A[014h],0
		jne	L13A9
		inc	dword ptr ?deferred@Module@@2UArray@@A[014h]
L12F0:		mov	dword ptr ?dprogress@Module@@2IA,0
		cmp	dword ptr ?deferred@Module@@2UArray@@A[04h],0
		mov	EDI,?deferred@Module@@2UArray@@A[04h]
		je	L13A3
		cmp	dword ptr ?deferred@Module@@2UArray@@A[04h],1
		jne	L131B
		lea	EBX,-4[EBP]
		jmp short	L134A
L131B:		mov	ECX,?deferred@Module@@2UArray@@A[04h]
		shl	ECX,2
		push	ECX
		lea	ECX,-0Ch[EBP]
		call	near ptr ___alloca
		add	ESP,4
		mov	EBX,EAX
		test	EAX,EAX
		jne	L134A
		push	03F3h
		push	offset FLAT:_DATA[02E4h]
		push	offset FLAT:_DATA[0408h]
		call	near ptr __assert
L134A:		mov	EDX,EDI
		shl	EDX,2
		push	EDX
		mov	-8[EBP],EBX
		push	dword ptr ?deferred@Module@@2UArray@@A[08h]
		push	dword ptr -8[EBP]
		call	near ptr _memcpy
		mov	ECX,offset FLAT:?deferred@Module@@2UArray@@A
		push	0
		call	near ptr ?setDim@Array@@QAEXI@Z
		xor	EBX,EBX
		add	ESP,0Ch
		test	EDI,EDI
		je	L138A
L1376:		push	0
		mov	EDX,-8[EBP]
		mov	ESI,[EBX*4][EDX]
		mov	EDX,[ESI]
		mov	ECX,ESI
		call	dword ptr 040h[EDX]
		inc	EBX
		cmp	EBX,EDI
		jb	L1376
L138A:		cmp	?deferred@Module@@2UArray@@A[04h],EDI
		jb	L12F0
		cmp	dword ptr ?dprogress@Module@@2IA,0
		jne	L12F0
L13A3:		dec	dword ptr ?deferred@Module@@2UArray@@A[014h]
L13A9:		pop	EDI
		pop	ESI
		pop	EBX
		mov	ESP,EBP
		pop	EBP
		ret
?imports@Module@@QAEHPAU1@@Z:
		push	ECX
		push	EBX
		xor	EBX,EBX
		push	EBP
		mov	EBP,010h[ESP]
		push	ESI
		push	EDI
		mov	EDI,ECX
		cmp	094h[EDI],EBX
		je	L1409
L13C5:		mov	ECX,098h[EDI]
		mov	ESI,[EBX*4][ECX]
		cmp	ESI,EBP
		jne	L13DF
		pop	EDI
		mov	EAX,1
		pop	ESI
		pop	EBP
		pop	EBX
		pop	ECX
		ret	4
L13DF:		cmp	dword ptr 06Ch[ESI],0
		jne	L1400
		mov	dword ptr 06Ch[ESI],1
		mov	ECX,ESI
		push	EBP
		call	near ptr ?imports@Module@@QAEHPAU1@@Z
		test	EAX,EAX
		je	L1400
		pop	EDI
		pop	ESI
		pop	EBP
		pop	EBX
		pop	ECX
		ret	4
L1400:		inc	EBX
		cmp	094h[EDI],EBX
		ja	L13C5
L1409:		pop	EDI
		xor	EAX,EAX
		pop	ESI
		pop	EBP
		pop	EBX
		pop	ECX
		ret	4
?selfImports@Module@@QAEHXZ:
		push	ECX
		push	EBX
		push	ESI
		mov	ESI,ECX
		cmp	dword ptr 068h[ECX],0
		jne	L146F
		xor	EDX,EDX
		cmp	?amodules@Module@@2UArray@@A[04h],EDX
		je	L1440
L1428:		mov	EAX,?amodules@Module@@2UArray@@A[08h]
		mov	ECX,[EDX*4][EAX]
		inc	EDX
		mov	dword ptr 06Ch[ECX],0
		cmp	EDX,?amodules@Module@@2UArray@@A[04h]
		jb	L1428
L1440:		push	ESI
		mov	ECX,ESI
		call	near ptr ?imports@Module@@QAEHPAU1@@Z
		inc	EAX
		xor	EBX,EBX
		mov	068h[ESI],EAX
		cmp	?amodules@Module@@2UArray@@A[04h],EBX
		je	L146F
L1456:		mov	EDX,?amodules@Module@@2UArray@@A[08h]
		mov	ECX,[EBX*4][EDX]
		inc	EBX
		mov	dword ptr 06Ch[ECX],0
		cmp	EBX,?amodules@Module@@2UArray@@A[04h]
		jb	L1456
L146F:		mov	EAX,068h[ESI]
		dec	EAX
		pop	ESI
		pop	EBX
		pop	ECX
		ret
??0ModuleDeclaration@@QAE@PAUArray@@PAUIdentifier@@@Z:
		push	EBX
		mov	EDX,ECX
		mov	EAX,8[ESP]
		mov	4[EDX],EAX
		mov	EBX,0Ch[ESP]
		mov	EAX,ECX
		mov	[EDX],EBX
		pop	EBX
		ret	8
		nop
		nop
		nop
?toChars@ModuleDeclaration@@QAEPADXZ:
		sub	ESP,010h
		push	EBX
		push	ESI
		mov	ESI,ECX
		push	EDI
		lea	ECX,0Ch[ESP]
		call	near ptr ??0OutBuffer@@QAE@XZ
		mov	EAX,4[ESI]
		test	EAX,EAX
		je	L14E3
		cmp	dword ptr 4[EAX],0
		je	L14E3
		xor	EBX,EBX
		cmp	4[EAX],EBX
		je	L14E3
L14B5:		mov	EDX,4[ESI]
		mov	ECX,8[EDX]
		mov	EDI,[EBX*4][ECX]
		mov	EDX,[EDI]
		mov	ECX,EDI
		call	dword ptr 014h[EDX]
		push	EAX
		lea	ECX,010h[ESP]
		call	near ptr ?writestring@OutBuffer@@QAEXPBD@Z
		push	02Eh
		lea	ECX,010h[ESP]
		call	near ptr ?writeByte@OutBuffer@@QAEXI@Z
		mov	EDX,4[ESI]
		inc	EBX
		cmp	4[EDX],EBX
		ja	L14B5
L14E3:		mov	ECX,[ESI]
		mov	EDX,[ECX]
		call	dword ptr 014h[EDX]
		push	EAX
		lea	ECX,010h[ESP]
		call	near ptr ?writestring@OutBuffer@@QAEXPBD@Z
		push	0
		lea	ECX,010h[ESP]
		call	near ptr ?writeByte@OutBuffer@@QAEXI@Z
		lea	ECX,0Ch[ESP]
		call	near ptr ?extractData@OutBuffer@@QAEPAXXZ
		mov	EBX,EAX
		lea	ECX,0Ch[ESP]
		call	near ptr ??1OutBuffer@@UAE@XZ
		mov	EAX,EBX
		pop	EDI
		pop	ESI
		pop	EBX
		add	ESP,010h
		ret
		nop
		nop
		nop
		nop
??0Package@@QAE@PAUIdentifier@@@Z:
		push	EBX
		mov	EBX,ECX
		push	dword ptr 8[ESP]
		call	near ptr ??0ScopeDsymbol@@QAE@PAUIdentifier@@@Z
		mov	EAX,EBX
		mov	dword ptr [EBX],offset FLAT:??_7Package@@6B@
		pop	EBX
		ret	4
?kind@Package@@UAEPBDXZ:
		push	ECX
		mov	EAX,offset FLAT:_DATA[0410h]
		pop	ECX
		ret
?resolve@Package@@SAPAUDsymbolTable@@PAUArray@@PAPAUDsymbol@@PAPAU1@@Z:
		sub	ESP,0Ch
		xor	EAX,EAX
		mov	EDX,018h[ESP]
		push	EBX
		test	EDX,EDX
		push	EBP
		mov	EBP,?modules@Module@@2PAUDsymbolTable@@A
		push	ESI
		mov	ESI,01Ch[ESP]
		push	EDI
		mov	010h[ESP],EAX
		je	L1561
		mov	[EDX],EAX
L1561:		test	ESI,ESI
		je	L1662
		xor	EDI,EDI
		cmp	4[ESI],EAX
		je	L1651
L1574:		mov	028h[ESP],EDX
		mov	ECX,8[ESI]
		mov	EDX,[EDI*4][ECX]
		mov	014h[ESP],EDX
		mov	ECX,EBP
		push	EDX
		call	near ptr ?lookup@DsymbolTable@@QAEPAUDsymbol@@PAUIdentifier@@@Z
		mov	EBX,EAX
		test	EAX,EAX
		jne	L15EC
		mov	020h[ESP],ESI
		push	038h
		call	near ptr ??2@YAPAXI@Z
		add	ESP,4
		mov	ESI,EAX
		test	EAX,EAX
		je	L15B1
		mov	ECX,ESI
		push	dword ptr 014h[ESP]
		call	near ptr ??0Package@@QAE@PAUIdentifier@@@Z
		mov	ESI,EAX
L15B1:		mov	EBX,ESI
		mov	ECX,EBP
		push	ESI
		call	near ptr ?insert@DsymbolTable@@QAEPAUDsymbol@@PAU2@@Z
		mov	EDX,010h[ESP]
		mov	0Ch[ESI],EDX
		push	8
		call	near ptr ??2@YAPAXI@Z
		add	ESP,4
		test	EAX,EAX
		mov	018h[ESP],EAX
		je	L15DF
		mov	ECX,EAX
		call	near ptr ??0DsymbolTable@@QAE@XZ
		mov	018h[ESP],EAX
L15DF:		mov	EDX,018h[ESP]
		mov	02Ch[ESI],EDX
		mov	ESI,020h[ESP]
		jmp short	L1631
L15EC:		mov	EDX,[EBX]
		mov	ECX,EBX
		call	dword ptr 0C8h[EDX]
		test	EAX,EAX
		jne	L160E
		push	0482h
		push	offset FLAT:_DATA[02E4h]
		push	offset FLAT:_DATA[0418h]
		call	near ptr __assert
L160E:		mov	EDX,[EBX]
		mov	ECX,EBX
		call	dword ptr 0CCh[EDX]
		test	EAX,EAX
		je	L1631
		push	offset FLAT:_DATA[0428h]
		push	EBX
		call	near ptr ?error@Dsymbol@@QAAXPBDZZ
		call	near ptr ?fatal@@YAXXZ
		add	ESP,8
		jmp short	L1651
L1631:		mov	010h[ESP],EBX
		mov	EDX,028h[ESP]
		mov	EBP,02Ch[EBX]
		test	EDX,EDX
		je	L1647
		cmp	dword ptr [EDX],0
		jne	L1647
		mov	[EDX],EBX
L1647:		inc	EDI
		cmp	4[ESI],EDI
		ja	L1574
L1651:		cmp	dword ptr 024h[ESP],0
		je	L1662
		mov	EBX,024h[ESP]
		mov	EAX,010h[ESP]
		mov	[EBX],EAX
L1662:		pop	EDI
		mov	EAX,EBP
		pop	ESI
		pop	EBP
		pop	EBX
		add	ESP,0Ch
		ret
		nop
		nop
		nop
		nop
___SD?%module_c2125349201_:
		push	EAX
		mov	ECX,offset FLAT:?deferred@Module@@2UArray@@A
		call	near ptr ??1Array@@UAE@XZ
		mov	ECX,offset FLAT:?amodules@Module@@2UArray@@A
		call	near ptr ??1Array@@UAE@XZ
		pop	EAX
		ret
___SI?%module_c2125349201_:
		push	EAX
		mov	ECX,offset FLAT:?amodules@Module@@2UArray@@A
		call	near ptr ??0Array@@QAE@XZ
		mov	ECX,offset FLAT:?deferred@Module@@2UArray@@A
		call	near ptr ??0Array@@QAE@XZ
		push	offset FLAT:___SD?%module_c2125349201_
		call	near ptr __fatexit
		add	ESP,4
		pop	EAX
		ret
_TEXT	ends
_DATA	segment
D0	db	064h,064h,000h,000h
D4	db	068h,074h,06dh,06ch
	db	000h,000h,000h,000h
DC	db	068h,074h,06dh,000h
D10	db	078h,068h,074h,06dh,06ch,000h,000h,000h
D18	db	073h,06fh,075h,072h,063h,065h,020h,066h
	db	069h,06ch,065h,020h,06eh,061h,06dh,065h
	db	020h,027h,025h,073h,027h,020h,06dh,075h
	db	073h,074h,020h,068h,061h,076h,065h,020h
	db	02eh,025h,073h,020h,065h,078h,074h,065h
	db	06eh,073h,069h,06fh,06eh,000h,000h,000h
D48	db	053h,06fh,075h,072h,063h,065h,020h,066h
	db	069h,06ch,065h,020h,061h,06eh,064h,020h
	db	064h,06fh,063h,075h,06dh,065h,06eh,074h
	db	061h,074h,069h,06fh,06eh,020h,066h,069h
	db	06ch,065h,020h,068h,061h,076h,065h,020h
	db	073h,061h,06dh,065h,020h,06eh,061h,06dh
	db	065h,020h,027h,025h,073h,027h,000h,000h
D80	db	053h,06fh,075h,072h,063h,065h,020h,066h
	db	069h,06ch,065h,020h,061h,06eh,064h,020h
	db	027h,068h,065h,061h,064h,065h,072h,027h
	db	020h,066h,069h,06ch,065h,020h,068h,061h
	db	076h,065h,020h,073h,061h,06dh,065h,020h
	db	06eh,061h,06dh,065h,020h,027h,025h,073h
	db	027h,000h,000h,000h
DB4	db	06dh,06fh,064h,075h
	db	06ch,065h,000h,000h
DBC	db	069h,06dh,070h,06fh
	db	072h,074h,020h,020h,020h,020h,000h,000h
DC8	db	025h,073h,02eh,000h
DCC	db	025h,073h,009h,028h
	db	025h,073h,029h,00ah,000h,000h,000h,000h
DD8	db	069h,073h,020h,069h,06eh,020h,066h,069h
	db	06ch,065h,020h,027h,025h,073h,027h,020h
	db	077h,068h,069h,063h,068h,020h,063h,061h
	db	06eh,06eh,06fh,074h,020h,062h,065h,020h
	db	072h,065h,061h,064h,000h,000h,000h,000h
D100	db	069h,06dh,070h,06fh,072h,074h,020h,070h
	db	061h,074h,068h,05bh,025h,064h,05dh,020h
	db	03dh,020h,025h,073h,00ah,000h,000h,000h
D118	db	053h,070h,065h,063h,069h,066h,079h,020h
	db	070h,061h,074h,068h,020h,074h,06fh,020h
	db	066h,069h,06ch,065h,020h,027h,025h,073h
	db	027h,020h,077h,069h,074h,068h,020h,02dh
	db	049h,020h,073h,077h,069h,074h,063h,068h
	db	00ah,000h,000h,000h
D144	db	06fh,064h,064h,020h
	db	06ch,065h,06eh,067h,074h,068h,020h,06fh
	db	066h,020h,055h,054h,046h,02dh,033h,032h
	db	020h,063h,068h,061h,072h,020h,073h,06fh
	db	075h,072h,063h,065h,020h,025h,075h,000h
D168	db	055h,054h,046h,02dh,033h,032h,020h,076h
	db	061h,06ch,075h,065h,020h,025h,030h,038h
	db	078h,020h,067h,072h,065h,061h,074h,065h
	db	072h,020h,074h,068h,061h,06eh,020h,030h
	db	078h,031h,030h,046h,046h,046h,046h,000h
D190	db	06fh,064h,064h,020h,06ch,065h,06eh,067h
	db	074h,068h,020h,06fh,066h,020h,055h,054h
	db	046h,02dh,031h,036h,020h,063h,068h,061h
	db	072h,020h,073h,06fh,075h,072h,063h,065h
	db	020h,025h,075h,000h
D1B4	db	073h,075h,072h,072h
	db	06fh,067h,061h,074h,065h,020h,055h,054h
	db	046h,02dh,031h,036h,020h,068h,069h,067h
	db	068h,020h,076h,061h,06ch,075h,065h,020h
	db	025h,030h,034h,078h,020h,061h,074h,020h
	db	045h,04fh,046h,000h
D1DC	db	073h,075h,072h,072h
	db	06fh,067h,061h,074h,065h,020h,055h,054h
	db	046h,02dh,031h,036h,020h,06ch,06fh,077h
	db	020h,076h,061h,06ch,075h,065h,020h,025h
	db	030h,034h,078h,020h,06fh,075h,074h,020h
	db	06fh,066h,020h,072h,061h,06eh,067h,065h
	db	000h,000h,000h,000h
D20C	db	075h,06eh,070h,061h
	db	069h,072h,065h,064h,020h,073h,075h,072h
	db	072h,06fh,067h,061h,074h,065h,020h,055h
	db	054h,046h,02dh,031h,036h,020h,076h,061h
	db	06ch,075h,065h,020h,025h,030h,034h,078h
	db	000h,000h,000h,000h
D234	db	069h,06ch,06ch,065h
	db	067h,061h,06ch,020h,055h,054h,046h,02dh
	db	031h,036h,020h,076h,061h,06ch,075h,065h
	db	020h,025h,030h,034h,078h,000h,000h,000h
D250	db	073h,06fh,075h,072h,063h,065h,020h,066h
	db	069h,06ch,065h,020h,06dh,075h,073h,074h
	db	020h,073h,074h,061h,072h,074h,020h,077h
	db	069h,074h,068h,020h,042h,04fh,04dh,020h
	db	06fh,072h,020h,041h,053h,043h,049h,049h
	db	020h,063h,068h,061h,072h,061h,063h,074h
	db	065h,072h,02ch,020h,06eh,06fh,074h,020h
	db	05ch,078h,025h,030h,032h,058h,000h,000h
D290	db	044h,064h,06fh,063h,000h,000h,000h,000h
D298	db	068h,061h,073h,020h,06eh,06fh,06eh,02dh
	db	069h,064h,065h,06eh,074h,069h,066h,069h
	db	065h,072h,020h,063h,068h,061h,072h,061h
	db	063h,074h,065h,072h,073h,020h,069h,06eh
	db	020h,066h,069h,06ch,065h,06eh,061h,06dh
	db	065h,02ch,020h,075h,073h,065h,020h,06dh
	db	06fh,064h,075h,06ch,065h,020h,064h,065h
	db	063h,06ch,061h,072h,061h,074h,069h,06fh
	db	06eh,020h,069h,06eh,073h,074h,065h,061h
	db	064h,000h,000h,000h
D2E4	db	06dh,06fh,064h,075h
	db	06ch,065h,02eh,063h,000h,000h,000h,000h
D2F0	db	070h,072h,065h,076h,000h,000h,000h,000h
D2F8	db	066h,072h,06fh,06dh,020h,066h,069h,06ch
	db	065h,020h,025h,073h,020h,063h,06fh,06eh
	db	066h,06ch,069h,063h,074h,073h,020h,077h
	db	069h,074h,068h,020h,061h,06eh,06fh,074h
	db	068h,065h,072h,020h,06dh,06fh,064h,075h
	db	06ch,065h,020h,025h,073h,020h,066h,072h
	db	06fh,06dh,020h,066h,069h,06ch,065h,020h
	db	025h,073h,000h,000h
D334	db	070h,06bh,067h,000h
D338	db	066h,072h,06fh,06dh,020h,066h,069h,06ch
	db	065h,020h,025h,073h,020h,063h,06fh,06eh
	db	066h,06ch,069h,063h,074h,073h,020h,077h
	db	069h,074h,068h,020h,070h,061h,063h,06bh
	db	061h,067h,065h,020h,06eh,061h,06dh,065h
	db	020h,025h,073h,000h
D364	db	074h,065h,073h,074h
	db	032h,00ah,000h,000h
D36C	db	075h,06eh,061h,062h
	db	06ch,065h,020h,074h,06fh,020h,072h,065h
	db	073h,06fh,06ch,076h,065h,020h,066h,06fh
	db	072h,077h,061h,072h,064h,020h,072h,065h
	db	066h,065h,072h,065h,06eh,063h,065h,020h
	db	069h,06eh,020h,064h,065h,066h,069h,06eh
	db	069h,074h,069h,06fh,06eh,000h,000h,000h
D3A0	db	073h,065h,06dh,061h,06eh,074h,069h,063h
	db	073h,074h,061h,072h,074h,065h,064h,020h
	db	03dh,03dh,020h,031h,000h,000h,000h,000h
D3B8	db	073h,065h,06dh,061h,06eh,074h,069h,063h
	db	073h,074h,061h,072h,074h,065h,064h,020h
	db	03dh,03dh,020h,032h,000h,000h,000h,000h
D3D0	db	073h,065h,06dh,061h,06eh,074h,069h,063h
	db	073h,074h,061h,072h,074h,065h,064h,020h
	db	03dh,03dh,020h,033h,000h,000h,000h,000h
D3E8	db	02fh,02fh,020h,053h,079h,06dh,020h,066h
	db	069h,06ch,065h,020h,067h,065h,06eh,065h
	db	072h,061h,074h,065h,064h,020h,066h,072h
	db	06fh,06dh,020h,027h,025h,073h,027h,000h
D408	db	074h,06fh,064h,06fh,000h,000h,000h,000h
D410	db	070h,061h,063h,06bh,061h,067h,065h,000h
D418	db	070h,02dh,03eh,069h,073h,050h,061h,063h
	db	06bh,061h,067h,065h,028h,029h,000h,000h
D428	db	06dh,06fh,064h,075h,06ch,065h,020h,061h
	db	06eh,064h,020h,070h,061h,063h,06bh,061h
	db	067h,065h,020h,068h,061h,076h,065h,020h
	db	074h,068h,065h,020h,073h,061h,06dh,065h
	db	020h,06eh,061h,06dh,065h,000h
_DATA	ends
CONST	segment
CONST	ends
_BSS	segment
_BSS	ends
XIFCB	segment
XIFCB	ends
XIFU	segment
	dd	offset FLAT:___SI?%module_c2125349201_
XIFU	ends
XIFL	segment
XIFL	ends
XIFM	segment
XIFM	ends
XIFCE	segment
XIFCE	ends
XOFB	segment
XOFB	ends
XOF	segment
XOF	ends
XOFE	segment
XOFE	ends
??_7Module@@6B@	comdat
	dd	offset FLAT:??_GModule@@UAEPAXI@Z
	dd	offset FLAT:?equals@Dsymbol@@UAEHPAUObject@@@Z
	dd	offset FLAT:?hashCode@Object@@UAEIXZ
	dd	offset FLAT:?compare@Object@@UAEHPAU1@@Z
	dd	offset FLAT:?print@Object@@UAEXXZ
	dd	offset FLAT:?toChars@Dsymbol@@UAEPADXZ
	dd	offset FLAT:?toDchars@Object@@UAEPADXZ
	dd	offset FLAT:?toBuffer@Object@@UAEXPAUOutBuffer@@@Z
	dd	offset FLAT:?dyncast@Dsymbol@@UAEHXZ
	dd	offset FLAT:?toPrettyChars@Dsymbol@@UAEPBDXZ
	dd	offset FLAT:?kind@Module@@UAEPBDXZ
	dd	offset FLAT:?toAlias@Dsymbol@@UAEPAU1@XZ
	dd	offset FLAT:?addMember@Dsymbol@@UAEHPAUScope@@PAUScopeDsymbol@@H@Z
	dd	offset FLAT:?setScope@Dsymbol@@UAEXPAUScope@@@Z
	dd	offset FLAT:?importAll@Module@@UAEXPAUScope@@@Z
	dd	offset FLAT:?semantic0@Dsymbol@@UAEXPAUScope@@@Z
	dd	offset FLAT:?semantic@Package@@UAEXPAUScope@@@Z
	dd	offset FLAT:?semantic2@Dsymbol@@UAEXPAUScope@@@Z
	dd	offset FLAT:?semantic3@Dsymbol@@UAEXPAUScope@@@Z
	dd	offset FLAT:?inlineScan@Module@@UAEXXZ
	dd	offset FLAT:?search@Module@@UAEPAUDsymbol@@ULoc@@PAUIdentifier@@H@Z
	dd	offset FLAT:?overloadInsert@Dsymbol@@UAEHPAU1@@Z
	dd	offset FLAT:?toHBuffer@Dsymbol@@UAEXPAUOutBuffer@@PAUHdrGenState@@@Z
	dd	offset FLAT:?toCBuffer@Module@@UAEXPAUOutBuffer@@PAUHdrGenState@@@Z
	dd	offset FLAT:?toDocBuffer@Dsymbol@@UAEXPAUOutBuffer@@@Z
	dd	offset FLAT:?toJsonBuffer@Module@@UAEXPAUOutBuffer@@@Z
	dd	offset FLAT:?size@Dsymbol@@UAEIULoc@@@Z
	dd	offset FLAT:?isforwardRef@ScopeDsymbol@@UAEHXZ
	dd	offset FLAT:?defineRef@ScopeDsymbol@@UAEXPAUDsymbol@@@Z
	dd	offset FLAT:?isThis@Dsymbol@@UAEPAUAggregateDeclaration@@XZ
	dd	offset FLAT:?isClassMember@Dsymbol@@UAEPAUClassDeclaration@@XZ
	dd	offset FLAT:?isExport@Dsymbol@@UAEHXZ
	dd	offset FLAT:?isImportedSymbol@Dsymbol@@UAEHXZ
	dd	offset FLAT:?isDeprecated@Dsymbol@@UAEHXZ
	dd	offset FLAT:?isLabel@Dsymbol@@UAEPAULabelDsymbol@@XZ
	dd	offset FLAT:?isMember@Dsymbol@@UAEPAUAggregateDeclaration@@XZ
	dd	offset FLAT:?getType@Dsymbol@@UAEPAUType@@XZ
	dd	offset FLAT:?mangle@Dsymbol@@UAEPADXZ
	dd	offset FLAT:?needThis@Dsymbol@@UAEHXZ
	dd	offset FLAT:?prot@Dsymbol@@UAE?AW4PROT@@XZ
	dd	offset FLAT:?syntaxCopy@ScopeDsymbol@@UAEPAUDsymbol@@PAU2@@Z
	dd	offset FLAT:?oneMember@Dsymbol@@UAEHPAPAU1@@Z
	dd	offset FLAT:?hasPointers@Dsymbol@@UAEHXZ
	dd	offset FLAT:?addLocalClass@Dsymbol@@UAEXPAUClassDeclarations@@@Z
	dd	offset FLAT:?checkCtorConstInit@Dsymbol@@UAEXXZ
	dd	offset FLAT:?addComment@Dsymbol@@UAEXPAE@Z
	dd	offset FLAT:?emitComment@Dsymbol@@UAEXPAUScope@@@Z
	dd	offset FLAT:?toSymbol@Module@@UAEPAUSymbol@@XZ
	dd	offset FLAT:?toObjFile@Dsymbol@@UAEXH@Z
	dd	offset FLAT:?cvMember@Dsymbol@@UAEHPAE@Z
	dd	offset FLAT:?isPackage@Package@@UAEPAU1@XZ
	dd	offset FLAT:?isModule@Module@@UAEPAU1@XZ
	dd	offset FLAT:?isEnumMember@Dsymbol@@UAEPAUEnumMember@@XZ
	dd	offset FLAT:?isTemplateDeclaration@Dsymbol@@UAEPAUTemplateDeclaration@@XZ
	dd	offset FLAT:?isTemplateInstance@Dsymbol@@UAEPAUTemplateInstance@@XZ
	dd	offset FLAT:?isTemplateMixin@Dsymbol@@UAEPAUTemplateMixin@@XZ
	dd	offset FLAT:?isDeclaration@Dsymbol@@UAEPAUDeclaration@@XZ
	dd	offset FLAT:?isThisDeclaration@Dsymbol@@UAEPAUThisDeclaration@@XZ
	dd	offset FLAT:?isTupleDeclaration@Dsymbol@@UAEPAUTupleDeclaration@@XZ
	dd	offset FLAT:?isTypedefDeclaration@Dsymbol@@UAEPAUTypedefDeclaration@@XZ
	dd	offset FLAT:?isAliasDeclaration@Dsymbol@@UAEPAUAliasDeclaration@@XZ
	dd	offset FLAT:?isAggregateDeclaration@Dsymbol@@UAEPAUAggregateDeclaration@@XZ
	dd	offset FLAT:?isFuncDeclaration@Dsymbol@@UAEPAUFuncDeclaration@@XZ
	dd	offset FLAT:?isFuncAliasDeclaration@Dsymbol@@UAEPAUFuncAliasDeclaration@@XZ
	dd	offset FLAT:?isFuncLiteralDeclaration@Dsymbol@@UAEPAUFuncLiteralDeclaration@@XZ
	dd	offset FLAT:?isCtorDeclaration@Dsymbol@@UAEPAUCtorDeclaration@@XZ
	dd	offset FLAT:?isPostBlitDeclaration@Dsymbol@@UAEPAUPostBlitDeclaration@@XZ
	dd	offset FLAT:?isDtorDeclaration@Dsymbol@@UAEPAUDtorDeclaration@@XZ
	dd	offset FLAT:?isStaticCtorDeclaration@Dsymbol@@UAEPAUStaticCtorDeclaration@@XZ
	dd	offset FLAT:?isStaticDtorDeclaration@Dsymbol@@UAEPAUStaticDtorDeclaration@@XZ
	dd	offset FLAT:?isInvariantDeclaration@Dsymbol@@UAEPAUInvariantDeclaration@@XZ
	dd	offset FLAT:?isUnitTestDeclaration@Dsymbol@@UAEPAUUnitTestDeclaration@@XZ
	dd	offset FLAT:?isNewDeclaration@Dsymbol@@UAEPAUNewDeclaration@@XZ
	dd	offset FLAT:?isVarDeclaration@Dsymbol@@UAEPAUVarDeclaration@@XZ
	dd	offset FLAT:?isClassDeclaration@Dsymbol@@UAEPAUClassDeclaration@@XZ
	dd	offset FLAT:?isStructDeclaration@Dsymbol@@UAEPAUStructDeclaration@@XZ
	dd	offset FLAT:?isUnionDeclaration@Dsymbol@@UAEPAUUnionDeclaration@@XZ
	dd	offset FLAT:?isInterfaceDeclaration@Dsymbol@@UAEPAUInterfaceDeclaration@@XZ
	dd	offset FLAT:?isScopeDsymbol@ScopeDsymbol@@UAEPAU1@XZ
	dd	offset FLAT:?isWithScopeSymbol@Dsymbol@@UAEPAUWithScopeSymbol@@XZ
	dd	offset FLAT:?isArrayScopeSymbol@Dsymbol@@UAEPAUArrayScopeSymbol@@XZ
	dd	offset FLAT:?isImport@Dsymbol@@UAEPAUImport@@XZ
	dd	offset FLAT:?isEnumDeclaration@Dsymbol@@UAEPAUEnumDeclaration@@XZ
	dd	offset FLAT:?isDeleteDeclaration@Dsymbol@@UAEPAUDeleteDeclaration@@XZ
	dd	offset FLAT:?isSymbolDeclaration@Dsymbol@@UAEPAUSymbolDeclaration@@XZ
	dd	offset FLAT:?isAttribDeclaration@Dsymbol@@UAEPAUAttribDeclaration@@XZ
	dd	offset FLAT:?isOverloadSet@Dsymbol@@UAEPAUOverloadSet@@XZ
	dd	offset FLAT:?symtabInsert@Module@@UAEPAUDsymbol@@PAU2@@Z
??_7Module@@6B@	ends
??_GModule@@UAEPAXI@Z	comdat
	assume	CS:??_GModule@@UAEPAXI@Z
L0:		push	EBX
		mov	EBX,ECX
		test	ECX,ECX
		je	L1F
		call	near ptr ??1Module@@UAE@XZ
		test	dword ptr 8[ESP],1
		je	L1F
		push	EBX
		call	near ptr ??3@YAXPAX@Z
		add	ESP,4
L1F:		mov	EAX,EBX
		pop	EBX
		ret	4
??_GModule@@UAEPAXI@Z	ends
?dyncast@Dsymbol@@UAEHXZ	comdat
	assume	CS:?dyncast@Dsymbol@@UAEHXZ
		push	ECX
		mov	EAX,2
		pop	ECX
		ret
?dyncast@Dsymbol@@UAEHXZ	ends
?semantic@Package@@UAEXPAUScope@@@Z	comdat
	assume	CS:?semantic@Package@@UAEXPAUScope@@@Z
		push	ECX
		pop	EAX
		ret	4
?semantic@Package@@UAEXPAUScope@@@Z	ends
?addLocalClass@Dsymbol@@UAEXPAUClassDeclarations@@@Z	comdat
	assume	CS:?addLocalClass@Dsymbol@@UAEXPAUClassDeclarations@@@Z
		push	ECX
		pop	EAX
		ret	4
?addLocalClass@Dsymbol@@UAEXPAUClassDeclarations@@@Z	ends
?checkCtorConstInit@Dsymbol@@UAEXXZ	comdat
	assume	CS:?checkCtorConstInit@Dsymbol@@UAEXXZ
		push	ECX
		pop	EAX
		ret
?checkCtorConstInit@Dsymbol@@UAEXXZ	ends
?isPackage@Package@@UAEPAU1@XZ	comdat
	assume	CS:?isPackage@Package@@UAEPAU1@XZ
		push	ECX
		mov	EAX,ECX
		pop	ECX
		ret
?isPackage@Package@@UAEPAU1@XZ	ends
?isModule@Module@@UAEPAU1@XZ	comdat
	assume	CS:?isModule@Module@@UAEPAU1@XZ
		push	ECX
		mov	EAX,ECX
		pop	ECX
		ret
?isModule@Module@@UAEPAU1@XZ	ends
?isEnumMember@Dsymbol@@UAEPAUEnumMember@@XZ	comdat
	assume	CS:?isEnumMember@Dsymbol@@UAEPAUEnumMember@@XZ
		push	ECX
		xor	EAX,EAX
		pop	ECX
		ret
?isEnumMember@Dsymbol@@UAEPAUEnumMember@@XZ	ends
?isTemplateDeclaration@Dsymbol@@UAEPAUTemplateDeclaration@@XZ	comdat
	assume	CS:?isTemplateDeclaration@Dsymbol@@UAEPAUTemplateDeclaration@@XZ
		push	ECX
		xor	EAX,EAX
		pop	ECX
		ret
?isTemplateDeclaration@Dsymbol@@UAEPAUTemplateDeclaration@@XZ	ends
?isTemplateInstance@Dsymbol@@UAEPAUTemplateInstance@@XZ	comdat
	assume	CS:?isTemplateInstance@Dsymbol@@UAEPAUTemplateInstance@@XZ
		push	ECX
		xor	EAX,EAX
		pop	ECX
		ret
?isTemplateInstance@Dsymbol@@UAEPAUTemplateInstance@@XZ	ends
?isTemplateMixin@Dsymbol@@UAEPAUTemplateMixin@@XZ	comdat
	assume	CS:?isTemplateMixin@Dsymbol@@UAEPAUTemplateMixin@@XZ
		push	ECX
		xor	EAX,EAX
		pop	ECX
		ret
?isTemplateMixin@Dsymbol@@UAEPAUTemplateMixin@@XZ	ends
?isDeclaration@Dsymbol@@UAEPAUDeclaration@@XZ	comdat
	assume	CS:?isDeclaration@Dsymbol@@UAEPAUDeclaration@@XZ
		push	ECX
		xor	EAX,EAX
		pop	ECX
		ret
?isDeclaration@Dsymbol@@UAEPAUDeclaration@@XZ	ends
?isThisDeclaration@Dsymbol@@UAEPAUThisDeclaration@@XZ	comdat
	assume	CS:?isThisDeclaration@Dsymbol@@UAEPAUThisDeclaration@@XZ
		push	ECX
		xor	EAX,EAX
		pop	ECX
		ret
?isThisDeclaration@Dsymbol@@UAEPAUThisDeclaration@@XZ	ends
?isTupleDeclaration@Dsymbol@@UAEPAUTupleDeclaration@@XZ	comdat
	assume	CS:?isTupleDeclaration@Dsymbol@@UAEPAUTupleDeclaration@@XZ
		push	ECX
		xor	EAX,EAX
		pop	ECX
		ret
?isTupleDeclaration@Dsymbol@@UAEPAUTupleDeclaration@@XZ	ends
?isTypedefDeclaration@Dsymbol@@UAEPAUTypedefDeclaration@@XZ	comdat
	assume	CS:?isTypedefDeclaration@Dsymbol@@UAEPAUTypedefDeclaration@@XZ
		push	ECX
		xor	EAX,EAX
		pop	ECX
		ret
?isTypedefDeclaration@Dsymbol@@UAEPAUTypedefDeclaration@@XZ	ends
?isAliasDeclaration@Dsymbol@@UAEPAUAliasDeclaration@@XZ	comdat
	assume	CS:?isAliasDeclaration@Dsymbol@@UAEPAUAliasDeclaration@@XZ
		push	ECX
		xor	EAX,EAX
		pop	ECX
		ret
?isAliasDeclaration@Dsymbol@@UAEPAUAliasDeclaration@@XZ	ends
?isAggregateDeclaration@Dsymbol@@UAEPAUAggregateDeclaration@@XZ	comdat
	assume	CS:?isAggregateDeclaration@Dsymbol@@UAEPAUAggregateDeclaration@@XZ
		push	ECX
		xor	EAX,EAX
		pop	ECX
		ret
?isAggregateDeclaration@Dsymbol@@UAEPAUAggregateDeclaration@@XZ	ends
?isFuncDeclaration@Dsymbol@@UAEPAUFuncDeclaration@@XZ	comdat
	assume	CS:?isFuncDeclaration@Dsymbol@@UAEPAUFuncDeclaration@@XZ
		push	ECX
		xor	EAX,EAX
		pop	ECX
		ret
?isFuncDeclaration@Dsymbol@@UAEPAUFuncDeclaration@@XZ	ends
?isFuncAliasDeclaration@Dsymbol@@UAEPAUFuncAliasDeclaration@@XZ	comdat
	assume	CS:?isFuncAliasDeclaration@Dsymbol@@UAEPAUFuncAliasDeclaration@@XZ
		push	ECX
		xor	EAX,EAX
		pop	ECX
		ret
?isFuncAliasDeclaration@Dsymbol@@UAEPAUFuncAliasDeclaration@@XZ	ends
?isFuncLiteralDeclaration@Dsymbol@@UAEPAUFuncLiteralDeclaration@@XZ	comdat
	assume	CS:?isFuncLiteralDeclaration@Dsymbol@@UAEPAUFuncLiteralDeclaration@@XZ
		push	ECX
		xor	EAX,EAX
		pop	ECX
		ret
?isFuncLiteralDeclaration@Dsymbol@@UAEPAUFuncLiteralDeclaration@@XZ	ends
?isCtorDeclaration@Dsymbol@@UAEPAUCtorDeclaration@@XZ	comdat
	assume	CS:?isCtorDeclaration@Dsymbol@@UAEPAUCtorDeclaration@@XZ
		push	ECX
		xor	EAX,EAX
		pop	ECX
		ret
?isCtorDeclaration@Dsymbol@@UAEPAUCtorDeclaration@@XZ	ends
?isPostBlitDeclaration@Dsymbol@@UAEPAUPostBlitDeclaration@@XZ	comdat
	assume	CS:?isPostBlitDeclaration@Dsymbol@@UAEPAUPostBlitDeclaration@@XZ
		push	ECX
		xor	EAX,EAX
		pop	ECX
		ret
?isPostBlitDeclaration@Dsymbol@@UAEPAUPostBlitDeclaration@@XZ	ends
?isDtorDeclaration@Dsymbol@@UAEPAUDtorDeclaration@@XZ	comdat
	assume	CS:?isDtorDeclaration@Dsymbol@@UAEPAUDtorDeclaration@@XZ
		push	ECX
		xor	EAX,EAX
		pop	ECX
		ret
?isDtorDeclaration@Dsymbol@@UAEPAUDtorDeclaration@@XZ	ends
?isStaticCtorDeclaration@Dsymbol@@UAEPAUStaticCtorDeclaration@@XZ	comdat
	assume	CS:?isStaticCtorDeclaration@Dsymbol@@UAEPAUStaticCtorDeclaration@@XZ
		push	ECX
		xor	EAX,EAX
		pop	ECX
		ret
?isStaticCtorDeclaration@Dsymbol@@UAEPAUStaticCtorDeclaration@@XZ	ends
?isStaticDtorDeclaration@Dsymbol@@UAEPAUStaticDtorDeclaration@@XZ	comdat
	assume	CS:?isStaticDtorDeclaration@Dsymbol@@UAEPAUStaticDtorDeclaration@@XZ
		push	ECX
		xor	EAX,EAX
		pop	ECX
		ret
?isStaticDtorDeclaration@Dsymbol@@UAEPAUStaticDtorDeclaration@@XZ	ends
?isInvariantDeclaration@Dsymbol@@UAEPAUInvariantDeclaration@@XZ	comdat
	assume	CS:?isInvariantDeclaration@Dsymbol@@UAEPAUInvariantDeclaration@@XZ
		push	ECX
		xor	EAX,EAX
		pop	ECX
		ret
?isInvariantDeclaration@Dsymbol@@UAEPAUInvariantDeclaration@@XZ	ends
?isUnitTestDeclaration@Dsymbol@@UAEPAUUnitTestDeclaration@@XZ	comdat
	assume	CS:?isUnitTestDeclaration@Dsymbol@@UAEPAUUnitTestDeclaration@@XZ
		push	ECX
		xor	EAX,EAX
		pop	ECX
		ret
?isUnitTestDeclaration@Dsymbol@@UAEPAUUnitTestDeclaration@@XZ	ends
?isNewDeclaration@Dsymbol@@UAEPAUNewDeclaration@@XZ	comdat
	assume	CS:?isNewDeclaration@Dsymbol@@UAEPAUNewDeclaration@@XZ
		push	ECX
		xor	EAX,EAX
		pop	ECX
		ret
?isNewDeclaration@Dsymbol@@UAEPAUNewDeclaration@@XZ	ends
?isVarDeclaration@Dsymbol@@UAEPAUVarDeclaration@@XZ	comdat
	assume	CS:?isVarDeclaration@Dsymbol@@UAEPAUVarDeclaration@@XZ
		push	ECX
		xor	EAX,EAX
		pop	ECX
		ret
?isVarDeclaration@Dsymbol@@UAEPAUVarDeclaration@@XZ	ends
?isClassDeclaration@Dsymbol@@UAEPAUClassDeclaration@@XZ	comdat
	assume	CS:?isClassDeclaration@Dsymbol@@UAEPAUClassDeclaration@@XZ
		push	ECX
		xor	EAX,EAX
		pop	ECX
		ret
?isClassDeclaration@Dsymbol@@UAEPAUClassDeclaration@@XZ	ends
?isStructDeclaration@Dsymbol@@UAEPAUStructDeclaration@@XZ	comdat
	assume	CS:?isStructDeclaration@Dsymbol@@UAEPAUStructDeclaration@@XZ
		push	ECX
		xor	EAX,EAX
		pop	ECX
		ret
?isStructDeclaration@Dsymbol@@UAEPAUStructDeclaration@@XZ	ends
?isUnionDeclaration@Dsymbol@@UAEPAUUnionDeclaration@@XZ	comdat
	assume	CS:?isUnionDeclaration@Dsymbol@@UAEPAUUnionDeclaration@@XZ
		push	ECX
		xor	EAX,EAX
		pop	ECX
		ret
?isUnionDeclaration@Dsymbol@@UAEPAUUnionDeclaration@@XZ	ends
?isInterfaceDeclaration@Dsymbol@@UAEPAUInterfaceDeclaration@@XZ	comdat
	assume	CS:?isInterfaceDeclaration@Dsymbol@@UAEPAUInterfaceDeclaration@@XZ
		push	ECX
		xor	EAX,EAX
		pop	ECX
		ret
?isInterfaceDeclaration@Dsymbol@@UAEPAUInterfaceDeclaration@@XZ	ends
?isScopeDsymbol@ScopeDsymbol@@UAEPAU1@XZ	comdat
	assume	CS:?isScopeDsymbol@ScopeDsymbol@@UAEPAU1@XZ
		push	ECX
		mov	EAX,ECX
		pop	ECX
		ret
?isScopeDsymbol@ScopeDsymbol@@UAEPAU1@XZ	ends
?isWithScopeSymbol@Dsymbol@@UAEPAUWithScopeSymbol@@XZ	comdat
	assume	CS:?isWithScopeSymbol@Dsymbol@@UAEPAUWithScopeSymbol@@XZ
		push	ECX
		xor	EAX,EAX
		pop	ECX
		ret
?isWithScopeSymbol@Dsymbol@@UAEPAUWithScopeSymbol@@XZ	ends
?isArrayScopeSymbol@Dsymbol@@UAEPAUArrayScopeSymbol@@XZ	comdat
	assume	CS:?isArrayScopeSymbol@Dsymbol@@UAEPAUArrayScopeSymbol@@XZ
		push	ECX
		xor	EAX,EAX
		pop	ECX
		ret
?isArrayScopeSymbol@Dsymbol@@UAEPAUArrayScopeSymbol@@XZ	ends
?isImport@Dsymbol@@UAEPAUImport@@XZ	comdat
	assume	CS:?isImport@Dsymbol@@UAEPAUImport@@XZ
		push	ECX
		xor	EAX,EAX
		pop	ECX
		ret
?isImport@Dsymbol@@UAEPAUImport@@XZ	ends
?isEnumDeclaration@Dsymbol@@UAEPAUEnumDeclaration@@XZ	comdat
	assume	CS:?isEnumDeclaration@Dsymbol@@UAEPAUEnumDeclaration@@XZ
		push	ECX
		xor	EAX,EAX
		pop	ECX
		ret
?isEnumDeclaration@Dsymbol@@UAEPAUEnumDeclaration@@XZ	ends
?isDeleteDeclaration@Dsymbol@@UAEPAUDeleteDeclaration@@XZ	comdat
	assume	CS:?isDeleteDeclaration@Dsymbol@@UAEPAUDeleteDeclaration@@XZ
		push	ECX
		xor	EAX,EAX
		pop	ECX
		ret
?isDeleteDeclaration@Dsymbol@@UAEPAUDeleteDeclaration@@XZ	ends
?isSymbolDeclaration@Dsymbol@@UAEPAUSymbolDeclaration@@XZ	comdat
	assume	CS:?isSymbolDeclaration@Dsymbol@@UAEPAUSymbolDeclaration@@XZ
		push	ECX
		xor	EAX,EAX
		pop	ECX
		ret
?isSymbolDeclaration@Dsymbol@@UAEPAUSymbolDeclaration@@XZ	ends
?isAttribDeclaration@Dsymbol@@UAEPAUAttribDeclaration@@XZ	comdat
	assume	CS:?isAttribDeclaration@Dsymbol@@UAEPAUAttribDeclaration@@XZ
		push	ECX
		xor	EAX,EAX
		pop	ECX
		ret
?isAttribDeclaration@Dsymbol@@UAEPAUAttribDeclaration@@XZ	ends
?isOverloadSet@Dsymbol@@UAEPAUOverloadSet@@XZ	comdat
	assume	CS:?isOverloadSet@Dsymbol@@UAEPAUOverloadSet@@XZ
		push	ECX
		xor	EAX,EAX
		pop	ECX
		ret
?isOverloadSet@Dsymbol@@UAEPAUOverloadSet@@XZ	ends
??_7Package@@6B@	comdat
	dd	offset FLAT:??_GPackage@@UAEPAXI@Z
	dd	offset FLAT:?equals@Dsymbol@@UAEHPAUObject@@@Z
	dd	offset FLAT:?hashCode@Object@@UAEIXZ
	dd	offset FLAT:?compare@Object@@UAEHPAU1@@Z
	dd	offset FLAT:?print@Object@@UAEXXZ
	dd	offset FLAT:?toChars@Dsymbol@@UAEPADXZ
	dd	offset FLAT:?toDchars@Object@@UAEPADXZ
	dd	offset FLAT:?toBuffer@Object@@UAEXPAUOutBuffer@@@Z
	dd	offset FLAT:?dyncast@Dsymbol@@UAEHXZ
	dd	offset FLAT:?toPrettyChars@Dsymbol@@UAEPBDXZ
	dd	offset FLAT:?kind@Package@@UAEPBDXZ
	dd	offset FLAT:?toAlias@Dsymbol@@UAEPAU1@XZ
	dd	offset FLAT:?addMember@Dsymbol@@UAEHPAUScope@@PAUScopeDsymbol@@H@Z
	dd	offset FLAT:?setScope@Dsymbol@@UAEXPAUScope@@@Z
	dd	offset FLAT:?importAll@Dsymbol@@UAEXPAUScope@@@Z
	dd	offset FLAT:?semantic0@Dsymbol@@UAEXPAUScope@@@Z
	dd	offset FLAT:?semantic@Package@@UAEXPAUScope@@@Z
	dd	offset FLAT:?semantic2@Dsymbol@@UAEXPAUScope@@@Z
	dd	offset FLAT:?semantic3@Dsymbol@@UAEXPAUScope@@@Z
	dd	offset FLAT:?inlineScan@Dsymbol@@UAEXXZ
	dd	offset FLAT:?search@ScopeDsymbol@@UAEPAUDsymbol@@ULoc@@PAUIdentifier@@H@Z
	dd	offset FLAT:?overloadInsert@Dsymbol@@UAEHPAU1@@Z
	dd	offset FLAT:?toHBuffer@Dsymbol@@UAEXPAUOutBuffer@@PAUHdrGenState@@@Z
	dd	offset FLAT:?toCBuffer@Dsymbol@@UAEXPAUOutBuffer@@PAUHdrGenState@@@Z
	dd	offset FLAT:?toDocBuffer@Dsymbol@@UAEXPAUOutBuffer@@@Z
	dd	offset FLAT:?toJsonBuffer@Dsymbol@@UAEXPAUOutBuffer@@@Z
	dd	offset FLAT:?size@Dsymbol@@UAEIULoc@@@Z
	dd	offset FLAT:?isforwardRef@ScopeDsymbol@@UAEHXZ
	dd	offset FLAT:?defineRef@ScopeDsymbol@@UAEXPAUDsymbol@@@Z
	dd	offset FLAT:?isThis@Dsymbol@@UAEPAUAggregateDeclaration@@XZ
	dd	offset FLAT:?isClassMember@Dsymbol@@UAEPAUClassDeclaration@@XZ
	dd	offset FLAT:?isExport@Dsymbol@@UAEHXZ
	dd	offset FLAT:?isImportedSymbol@Dsymbol@@UAEHXZ
	dd	offset FLAT:?isDeprecated@Dsymbol@@UAEHXZ
	dd	offset FLAT:?isLabel@Dsymbol@@UAEPAULabelDsymbol@@XZ
	dd	offset FLAT:?isMember@Dsymbol@@UAEPAUAggregateDeclaration@@XZ
	dd	offset FLAT:?getType@Dsymbol@@UAEPAUType@@XZ
	dd	offset FLAT:?mangle@Dsymbol@@UAEPADXZ
	dd	offset FLAT:?needThis@Dsymbol@@UAEHXZ
	dd	offset FLAT:?prot@Dsymbol@@UAE?AW4PROT@@XZ
	dd	offset FLAT:?syntaxCopy@ScopeDsymbol@@UAEPAUDsymbol@@PAU2@@Z
	dd	offset FLAT:?oneMember@Dsymbol@@UAEHPAPAU1@@Z
	dd	offset FLAT:?hasPointers@Dsymbol@@UAEHXZ
	dd	offset FLAT:?addLocalClass@Dsymbol@@UAEXPAUClassDeclarations@@@Z
	dd	offset FLAT:?checkCtorConstInit@Dsymbol@@UAEXXZ
	dd	offset FLAT:?addComment@Dsymbol@@UAEXPAE@Z
	dd	offset FLAT:?emitComment@Dsymbol@@UAEXPAUScope@@@Z
	dd	offset FLAT:?toSymbol@Dsymbol@@UAEPAUSymbol@@XZ
	dd	offset FLAT:?toObjFile@Dsymbol@@UAEXH@Z
	dd	offset FLAT:?cvMember@Dsymbol@@UAEHPAE@Z
	dd	offset FLAT:?isPackage@Package@@UAEPAU1@XZ
	dd	offset FLAT:?isModule@Dsymbol@@UAEPAUModule@@XZ
	dd	offset FLAT:?isEnumMember@Dsymbol@@UAEPAUEnumMember@@XZ
	dd	offset FLAT:?isTemplateDeclaration@Dsymbol@@UAEPAUTemplateDeclaration@@XZ
	dd	offset FLAT:?isTemplateInstance@Dsymbol@@UAEPAUTemplateInstance@@XZ
	dd	offset FLAT:?isTemplateMixin@Dsymbol@@UAEPAUTemplateMixin@@XZ
	dd	offset FLAT:?isDeclaration@Dsymbol@@UAEPAUDeclaration@@XZ
	dd	offset FLAT:?isThisDeclaration@Dsymbol@@UAEPAUThisDeclaration@@XZ
	dd	offset FLAT:?isTupleDeclaration@Dsymbol@@UAEPAUTupleDeclaration@@XZ
	dd	offset FLAT:?isTypedefDeclaration@Dsymbol@@UAEPAUTypedefDeclaration@@XZ
	dd	offset FLAT:?isAliasDeclaration@Dsymbol@@UAEPAUAliasDeclaration@@XZ
	dd	offset FLAT:?isAggregateDeclaration@Dsymbol@@UAEPAUAggregateDeclaration@@XZ
	dd	offset FLAT:?isFuncDeclaration@Dsymbol@@UAEPAUFuncDeclaration@@XZ
	dd	offset FLAT:?isFuncAliasDeclaration@Dsymbol@@UAEPAUFuncAliasDeclaration@@XZ
	dd	offset FLAT:?isFuncLiteralDeclaration@Dsymbol@@UAEPAUFuncLiteralDeclaration@@XZ
	dd	offset FLAT:?isCtorDeclaration@Dsymbol@@UAEPAUCtorDeclaration@@XZ
	dd	offset FLAT:?isPostBlitDeclaration@Dsymbol@@UAEPAUPostBlitDeclaration@@XZ
	dd	offset FLAT:?isDtorDeclaration@Dsymbol@@UAEPAUDtorDeclaration@@XZ
	dd	offset FLAT:?isStaticCtorDeclaration@Dsymbol@@UAEPAUStaticCtorDeclaration@@XZ
	dd	offset FLAT:?isStaticDtorDeclaration@Dsymbol@@UAEPAUStaticDtorDeclaration@@XZ
	dd	offset FLAT:?isInvariantDeclaration@Dsymbol@@UAEPAUInvariantDeclaration@@XZ
	dd	offset FLAT:?isUnitTestDeclaration@Dsymbol@@UAEPAUUnitTestDeclaration@@XZ
	dd	offset FLAT:?isNewDeclaration@Dsymbol@@UAEPAUNewDeclaration@@XZ
	dd	offset FLAT:?isVarDeclaration@Dsymbol@@UAEPAUVarDeclaration@@XZ
	dd	offset FLAT:?isClassDeclaration@Dsymbol@@UAEPAUClassDeclaration@@XZ
	dd	offset FLAT:?isStructDeclaration@Dsymbol@@UAEPAUStructDeclaration@@XZ
	dd	offset FLAT:?isUnionDeclaration@Dsymbol@@UAEPAUUnionDeclaration@@XZ
	dd	offset FLAT:?isInterfaceDeclaration@Dsymbol@@UAEPAUInterfaceDeclaration@@XZ
	dd	offset FLAT:?isScopeDsymbol@ScopeDsymbol@@UAEPAU1@XZ
	dd	offset FLAT:?isWithScopeSymbol@Dsymbol@@UAEPAUWithScopeSymbol@@XZ
	dd	offset FLAT:?isArrayScopeSymbol@Dsymbol@@UAEPAUArrayScopeSymbol@@XZ
	dd	offset FLAT:?isImport@Dsymbol@@UAEPAUImport@@XZ
	dd	offset FLAT:?isEnumDeclaration@Dsymbol@@UAEPAUEnumDeclaration@@XZ
	dd	offset FLAT:?isDeleteDeclaration@Dsymbol@@UAEPAUDeleteDeclaration@@XZ
	dd	offset FLAT:?isSymbolDeclaration@Dsymbol@@UAEPAUSymbolDeclaration@@XZ
	dd	offset FLAT:?isAttribDeclaration@Dsymbol@@UAEPAUAttribDeclaration@@XZ
	dd	offset FLAT:?isOverloadSet@Dsymbol@@UAEPAUOverloadSet@@XZ
	dd	offset FLAT:?symtabInsert@ScopeDsymbol@@UAEPAUDsymbol@@PAU2@@Z
??_7Package@@6B@	ends
??_7ScopeDsymbol@@6B@	comdat
	dd	offset FLAT:??_GScopeDsymbol@@UAEPAXI@Z
	dd	offset FLAT:?equals@Dsymbol@@UAEHPAUObject@@@Z
	dd	offset FLAT:?hashCode@Object@@UAEIXZ
	dd	offset FLAT:?compare@Object@@UAEHPAU1@@Z
	dd	offset FLAT:?print@Object@@UAEXXZ
	dd	offset FLAT:?toChars@Dsymbol@@UAEPADXZ
	dd	offset FLAT:?toDchars@Object@@UAEPADXZ
	dd	offset FLAT:?toBuffer@Object@@UAEXPAUOutBuffer@@@Z
	dd	offset FLAT:?dyncast@Dsymbol@@UAEHXZ
	dd	offset FLAT:?toPrettyChars@Dsymbol@@UAEPBDXZ
	dd	offset FLAT:?kind@ScopeDsymbol@@UAEPBDXZ
	dd	offset FLAT:?toAlias@Dsymbol@@UAEPAU1@XZ
	dd	offset FLAT:?addMember@Dsymbol@@UAEHPAUScope@@PAUScopeDsymbol@@H@Z
	dd	offset FLAT:?setScope@Dsymbol@@UAEXPAUScope@@@Z
	dd	offset FLAT:?importAll@Dsymbol@@UAEXPAUScope@@@Z
	dd	offset FLAT:?semantic0@Dsymbol@@UAEXPAUScope@@@Z
	dd	offset FLAT:?semantic@Dsymbol@@UAEXPAUScope@@@Z
	dd	offset FLAT:?semantic2@Dsymbol@@UAEXPAUScope@@@Z
	dd	offset FLAT:?semantic3@Dsymbol@@UAEXPAUScope@@@Z
	dd	offset FLAT:?inlineScan@Dsymbol@@UAEXXZ
	dd	offset FLAT:?search@ScopeDsymbol@@UAEPAUDsymbol@@ULoc@@PAUIdentifier@@H@Z
	dd	offset FLAT:?overloadInsert@Dsymbol@@UAEHPAU1@@Z
	dd	offset FLAT:?toHBuffer@Dsymbol@@UAEXPAUOutBuffer@@PAUHdrGenState@@@Z
	dd	offset FLAT:?toCBuffer@Dsymbol@@UAEXPAUOutBuffer@@PAUHdrGenState@@@Z
	dd	offset FLAT:?toDocBuffer@Dsymbol@@UAEXPAUOutBuffer@@@Z
	dd	offset FLAT:?toJsonBuffer@Dsymbol@@UAEXPAUOutBuffer@@@Z
	dd	offset FLAT:?size@Dsymbol@@UAEIULoc@@@Z
	dd	offset FLAT:?isforwardRef@ScopeDsymbol@@UAEHXZ
	dd	offset FLAT:?defineRef@ScopeDsymbol@@UAEXPAUDsymbol@@@Z
	dd	offset FLAT:?isThis@Dsymbol@@UAEPAUAggregateDeclaration@@XZ
	dd	offset FLAT:?isClassMember@Dsymbol@@UAEPAUClassDeclaration@@XZ
	dd	offset FLAT:?isExport@Dsymbol@@UAEHXZ
	dd	offset FLAT:?isImportedSymbol@Dsymbol@@UAEHXZ
	dd	offset FLAT:?isDeprecated@Dsymbol@@UAEHXZ
	dd	offset FLAT:?isLabel@Dsymbol@@UAEPAULabelDsymbol@@XZ
	dd	offset FLAT:?isMember@Dsymbol@@UAEPAUAggregateDeclaration@@XZ
	dd	offset FLAT:?getType@Dsymbol@@UAEPAUType@@XZ
	dd	offset FLAT:?mangle@Dsymbol@@UAEPADXZ
	dd	offset FLAT:?needThis@Dsymbol@@UAEHXZ
	dd	offset FLAT:?prot@Dsymbol@@UAE?AW4PROT@@XZ
	dd	offset FLAT:?syntaxCopy@ScopeDsymbol@@UAEPAUDsymbol@@PAU2@@Z
	dd	offset FLAT:?oneMember@Dsymbol@@UAEHPAPAU1@@Z
	dd	offset FLAT:?hasPointers@Dsymbol@@UAEHXZ
	dd	offset FLAT:?addLocalClass@Dsymbol@@UAEXPAUClassDeclarations@@@Z
	dd	offset FLAT:?checkCtorConstInit@Dsymbol@@UAEXXZ
	dd	offset FLAT:?addComment@Dsymbol@@UAEXPAE@Z
	dd	offset FLAT:?emitComment@Dsymbol@@UAEXPAUScope@@@Z
	dd	offset FLAT:?toSymbol@Dsymbol@@UAEPAUSymbol@@XZ
	dd	offset FLAT:?toObjFile@Dsymbol@@UAEXH@Z
	dd	offset FLAT:?cvMember@Dsymbol@@UAEHPAE@Z
	dd	offset FLAT:?isPackage@Dsymbol@@UAEPAUPackage@@XZ
	dd	offset FLAT:?isModule@Dsymbol@@UAEPAUModule@@XZ
	dd	offset FLAT:?isEnumMember@Dsymbol@@UAEPAUEnumMember@@XZ
	dd	offset FLAT:?isTemplateDeclaration@Dsymbol@@UAEPAUTemplateDeclaration@@XZ
	dd	offset FLAT:?isTemplateInstance@Dsymbol@@UAEPAUTemplateInstance@@XZ
	dd	offset FLAT:?isTemplateMixin@Dsymbol@@UAEPAUTemplateMixin@@XZ
	dd	offset FLAT:?isDeclaration@Dsymbol@@UAEPAUDeclaration@@XZ
	dd	offset FLAT:?isThisDeclaration@Dsymbol@@UAEPAUThisDeclaration@@XZ
	dd	offset FLAT:?isTupleDeclaration@Dsymbol@@UAEPAUTupleDeclaration@@XZ
	dd	offset FLAT:?isTypedefDeclaration@Dsymbol@@UAEPAUTypedefDeclaration@@XZ
	dd	offset FLAT:?isAliasDeclaration@Dsymbol@@UAEPAUAliasDeclaration@@XZ
	dd	offset FLAT:?isAggregateDeclaration@Dsymbol@@UAEPAUAggregateDeclaration@@XZ
	dd	offset FLAT:?isFuncDeclaration@Dsymbol@@UAEPAUFuncDeclaration@@XZ
	dd	offset FLAT:?isFuncAliasDeclaration@Dsymbol@@UAEPAUFuncAliasDeclaration@@XZ
	dd	offset FLAT:?isFuncLiteralDeclaration@Dsymbol@@UAEPAUFuncLiteralDeclaration@@XZ
	dd	offset FLAT:?isCtorDeclaration@Dsymbol@@UAEPAUCtorDeclaration@@XZ
	dd	offset FLAT:?isPostBlitDeclaration@Dsymbol@@UAEPAUPostBlitDeclaration@@XZ
	dd	offset FLAT:?isDtorDeclaration@Dsymbol@@UAEPAUDtorDeclaration@@XZ
	dd	offset FLAT:?isStaticCtorDeclaration@Dsymbol@@UAEPAUStaticCtorDeclaration@@XZ
	dd	offset FLAT:?isStaticDtorDeclaration@Dsymbol@@UAEPAUStaticDtorDeclaration@@XZ
	dd	offset FLAT:?isInvariantDeclaration@Dsymbol@@UAEPAUInvariantDeclaration@@XZ
	dd	offset FLAT:?isUnitTestDeclaration@Dsymbol@@UAEPAUUnitTestDeclaration@@XZ
	dd	offset FLAT:?isNewDeclaration@Dsymbol@@UAEPAUNewDeclaration@@XZ
	dd	offset FLAT:?isVarDeclaration@Dsymbol@@UAEPAUVarDeclaration@@XZ
	dd	offset FLAT:?isClassDeclaration@Dsymbol@@UAEPAUClassDeclaration@@XZ
	dd	offset FLAT:?isStructDeclaration@Dsymbol@@UAEPAUStructDeclaration@@XZ
	dd	offset FLAT:?isUnionDeclaration@Dsymbol@@UAEPAUUnionDeclaration@@XZ
	dd	offset FLAT:?isInterfaceDeclaration@Dsymbol@@UAEPAUInterfaceDeclaration@@XZ
	dd	offset FLAT:?isScopeDsymbol@ScopeDsymbol@@UAEPAU1@XZ
	dd	offset FLAT:?isWithScopeSymbol@Dsymbol@@UAEPAUWithScopeSymbol@@XZ
	dd	offset FLAT:?isArrayScopeSymbol@Dsymbol@@UAEPAUArrayScopeSymbol@@XZ
	dd	offset FLAT:?isImport@Dsymbol@@UAEPAUImport@@XZ
	dd	offset FLAT:?isEnumDeclaration@Dsymbol@@UAEPAUEnumDeclaration@@XZ
	dd	offset FLAT:?isDeleteDeclaration@Dsymbol@@UAEPAUDeleteDeclaration@@XZ
	dd	offset FLAT:?isSymbolDeclaration@Dsymbol@@UAEPAUSymbolDeclaration@@XZ
	dd	offset FLAT:?isAttribDeclaration@Dsymbol@@UAEPAUAttribDeclaration@@XZ
	dd	offset FLAT:?isOverloadSet@Dsymbol@@UAEPAUOverloadSet@@XZ
	dd	offset FLAT:?symtabInsert@ScopeDsymbol@@UAEPAUDsymbol@@PAU2@@Z
??_7ScopeDsymbol@@6B@	ends
??_7Dsymbol@@6B@	comdat
	dd	offset FLAT:??_GDsymbol@@UAEPAXI@Z
	dd	offset FLAT:?equals@Dsymbol@@UAEHPAUObject@@@Z
	dd	offset FLAT:?hashCode@Object@@UAEIXZ
	dd	offset FLAT:?compare@Object@@UAEHPAU1@@Z
	dd	offset FLAT:?print@Object@@UAEXXZ
	dd	offset FLAT:?toChars@Dsymbol@@UAEPADXZ
	dd	offset FLAT:?toDchars@Object@@UAEPADXZ
	dd	offset FLAT:?toBuffer@Object@@UAEXPAUOutBuffer@@@Z
	dd	offset FLAT:?dyncast@Dsymbol@@UAEHXZ
	dd	offset FLAT:?toPrettyChars@Dsymbol@@UAEPBDXZ
	dd	offset FLAT:?kind@Dsymbol@@UAEPBDXZ
	dd	offset FLAT:?toAlias@Dsymbol@@UAEPAU1@XZ
	dd	offset FLAT:?addMember@Dsymbol@@UAEHPAUScope@@PAUScopeDsymbol@@H@Z
	dd	offset FLAT:?setScope@Dsymbol@@UAEXPAUScope@@@Z
	dd	offset FLAT:?importAll@Dsymbol@@UAEXPAUScope@@@Z
	dd	offset FLAT:?semantic0@Dsymbol@@UAEXPAUScope@@@Z
	dd	offset FLAT:?semantic@Dsymbol@@UAEXPAUScope@@@Z
	dd	offset FLAT:?semantic2@Dsymbol@@UAEXPAUScope@@@Z
	dd	offset FLAT:?semantic3@Dsymbol@@UAEXPAUScope@@@Z
	dd	offset FLAT:?inlineScan@Dsymbol@@UAEXXZ
	dd	offset FLAT:?search@Dsymbol@@UAEPAU1@ULoc@@PAUIdentifier@@H@Z
	dd	offset FLAT:?overloadInsert@Dsymbol@@UAEHPAU1@@Z
	dd	offset FLAT:?toHBuffer@Dsymbol@@UAEXPAUOutBuffer@@PAUHdrGenState@@@Z
	dd	offset FLAT:?toCBuffer@Dsymbol@@UAEXPAUOutBuffer@@PAUHdrGenState@@@Z
	dd	offset FLAT:?toDocBuffer@Dsymbol@@UAEXPAUOutBuffer@@@Z
	dd	offset FLAT:?toJsonBuffer@Dsymbol@@UAEXPAUOutBuffer@@@Z
	dd	offset FLAT:?size@Dsymbol@@UAEIULoc@@@Z
	dd	offset FLAT:?isforwardRef@Dsymbol@@UAEHXZ
	dd	offset FLAT:?defineRef@Dsymbol@@UAEXPAU1@@Z
	dd	offset FLAT:?isThis@Dsymbol@@UAEPAUAggregateDeclaration@@XZ
	dd	offset FLAT:?isClassMember@Dsymbol@@UAEPAUClassDeclaration@@XZ
	dd	offset FLAT:?isExport@Dsymbol@@UAEHXZ
	dd	offset FLAT:?isImportedSymbol@Dsymbol@@UAEHXZ
	dd	offset FLAT:?isDeprecated@Dsymbol@@UAEHXZ
	dd	offset FLAT:?isLabel@Dsymbol@@UAEPAULabelDsymbol@@XZ
	dd	offset FLAT:?isMember@Dsymbol@@UAEPAUAggregateDeclaration@@XZ
	dd	offset FLAT:?getType@Dsymbol@@UAEPAUType@@XZ
	dd	offset FLAT:?mangle@Dsymbol@@UAEPADXZ
	dd	offset FLAT:?needThis@Dsymbol@@UAEHXZ
	dd	offset FLAT:?prot@Dsymbol@@UAE?AW4PROT@@XZ
	dd	offset FLAT:?syntaxCopy@Dsymbol@@UAEPAU1@PAU1@@Z
	dd	offset FLAT:?oneMember@Dsymbol@@UAEHPAPAU1@@Z
	dd	offset FLAT:?hasPointers@Dsymbol@@UAEHXZ
	dd	offset FLAT:?addLocalClass@Dsymbol@@UAEXPAUClassDeclarations@@@Z
	dd	offset FLAT:?checkCtorConstInit@Dsymbol@@UAEXXZ
	dd	offset FLAT:?addComment@Dsymbol@@UAEXPAE@Z
	dd	offset FLAT:?emitComment@Dsymbol@@UAEXPAUScope@@@Z
	dd	offset FLAT:?toSymbol@Dsymbol@@UAEPAUSymbol@@XZ
	dd	offset FLAT:?toObjFile@Dsymbol@@UAEXH@Z
	dd	offset FLAT:?cvMember@Dsymbol@@UAEHPAE@Z
	dd	offset FLAT:?isPackage@Dsymbol@@UAEPAUPackage@@XZ
	dd	offset FLAT:?isModule@Dsymbol@@UAEPAUModule@@XZ
	dd	offset FLAT:?isEnumMember@Dsymbol@@UAEPAUEnumMember@@XZ
	dd	offset FLAT:?isTemplateDeclaration@Dsymbol@@UAEPAUTemplateDeclaration@@XZ
	dd	offset FLAT:?isTemplateInstance@Dsymbol@@UAEPAUTemplateInstance@@XZ
	dd	offset FLAT:?isTemplateMixin@Dsymbol@@UAEPAUTemplateMixin@@XZ
	dd	offset FLAT:?isDeclaration@Dsymbol@@UAEPAUDeclaration@@XZ
	dd	offset FLAT:?isThisDeclaration@Dsymbol@@UAEPAUThisDeclaration@@XZ
	dd	offset FLAT:?isTupleDeclaration@Dsymbol@@UAEPAUTupleDeclaration@@XZ
	dd	offset FLAT:?isTypedefDeclaration@Dsymbol@@UAEPAUTypedefDeclaration@@XZ
	dd	offset FLAT:?isAliasDeclaration@Dsymbol@@UAEPAUAliasDeclaration@@XZ
	dd	offset FLAT:?isAggregateDeclaration@Dsymbol@@UAEPAUAggregateDeclaration@@XZ
	dd	offset FLAT:?isFuncDeclaration@Dsymbol@@UAEPAUFuncDeclaration@@XZ
	dd	offset FLAT:?isFuncAliasDeclaration@Dsymbol@@UAEPAUFuncAliasDeclaration@@XZ
	dd	offset FLAT:?isFuncLiteralDeclaration@Dsymbol@@UAEPAUFuncLiteralDeclaration@@XZ
	dd	offset FLAT:?isCtorDeclaration@Dsymbol@@UAEPAUCtorDeclaration@@XZ
	dd	offset FLAT:?isPostBlitDeclaration@Dsymbol@@UAEPAUPostBlitDeclaration@@XZ
	dd	offset FLAT:?isDtorDeclaration@Dsymbol@@UAEPAUDtorDeclaration@@XZ
	dd	offset FLAT:?isStaticCtorDeclaration@Dsymbol@@UAEPAUStaticCtorDeclaration@@XZ
	dd	offset FLAT:?isStaticDtorDeclaration@Dsymbol@@UAEPAUStaticDtorDeclaration@@XZ
	dd	offset FLAT:?isInvariantDeclaration@Dsymbol@@UAEPAUInvariantDeclaration@@XZ
	dd	offset FLAT:?isUnitTestDeclaration@Dsymbol@@UAEPAUUnitTestDeclaration@@XZ
	dd	offset FLAT:?isNewDeclaration@Dsymbol@@UAEPAUNewDeclaration@@XZ
	dd	offset FLAT:?isVarDeclaration@Dsymbol@@UAEPAUVarDeclaration@@XZ
	dd	offset FLAT:?isClassDeclaration@Dsymbol@@UAEPAUClassDeclaration@@XZ
	dd	offset FLAT:?isStructDeclaration@Dsymbol@@UAEPAUStructDeclaration@@XZ
	dd	offset FLAT:?isUnionDeclaration@Dsymbol@@UAEPAUUnionDeclaration@@XZ
	dd	offset FLAT:?isInterfaceDeclaration@Dsymbol@@UAEPAUInterfaceDeclaration@@XZ
	dd	offset FLAT:?isScopeDsymbol@Dsymbol@@UAEPAUScopeDsymbol@@XZ
	dd	offset FLAT:?isWithScopeSymbol@Dsymbol@@UAEPAUWithScopeSymbol@@XZ
	dd	offset FLAT:?isArrayScopeSymbol@Dsymbol@@UAEPAUArrayScopeSymbol@@XZ
	dd	offset FLAT:?isImport@Dsymbol@@UAEPAUImport@@XZ
	dd	offset FLAT:?isEnumDeclaration@Dsymbol@@UAEPAUEnumDeclaration@@XZ
	dd	offset FLAT:?isDeleteDeclaration@Dsymbol@@UAEPAUDeleteDeclaration@@XZ
	dd	offset FLAT:?isSymbolDeclaration@Dsymbol@@UAEPAUSymbolDeclaration@@XZ
	dd	offset FLAT:?isAttribDeclaration@Dsymbol@@UAEPAUAttribDeclaration@@XZ
	dd	offset FLAT:?isOverloadSet@Dsymbol@@UAEPAUOverloadSet@@XZ
??_7Dsymbol@@6B@	ends
??_7Object@@6B@	comdat
	dd	offset FLAT:??_GObject@@UAEPAXI@Z
	dd	offset FLAT:?equals@Object@@UAEHPAU1@@Z
	dd	offset FLAT:?hashCode@Object@@UAEIXZ
	dd	offset FLAT:?compare@Object@@UAEHPAU1@@Z
	dd	offset FLAT:?print@Object@@UAEXXZ
	dd	offset FLAT:?toChars@Object@@UAEPADXZ
	dd	offset FLAT:?toDchars@Object@@UAEPADXZ
	dd	offset FLAT:?toBuffer@Object@@UAEXPAUOutBuffer@@@Z
	dd	offset FLAT:?dyncast@Object@@UAEHXZ
??_7Object@@6B@	ends
??_GPackage@@UAEPAXI@Z	comdat
	assume	CS:??_GPackage@@UAEPAXI@Z
L0:		push	EBX
		mov	EBX,ECX
		test	ECX,ECX
		je	L32
		mov	dword ptr [EBX],offset FLAT:??_7Package@@6B@
		mov	dword ptr [EBX],offset FLAT:??_7ScopeDsymbol@@6B@
		mov	dword ptr [EBX],offset FLAT:??_7Dsymbol@@6B@
		mov	dword ptr [EBX],offset FLAT:??_7Object@@6B@
		test	dword ptr 8[ESP],1
		je	L32
		push	EBX
		call	near ptr ??3@YAXPAX@Z
		add	ESP,4
L32:		mov	EAX,EBX
		pop	EBX
		ret	4
??_GPackage@@UAEPAXI@Z	ends
?isModule@Dsymbol@@UAEPAUModule@@XZ	comdat
	assume	CS:?isModule@Dsymbol@@UAEPAUModule@@XZ
		push	ECX
		xor	EAX,EAX
		pop	ECX
		ret
?isModule@Dsymbol@@UAEPAUModule@@XZ	ends
??_GScopeDsymbol@@UAEPAXI@Z	comdat
	assume	CS:??_GScopeDsymbol@@UAEPAXI@Z
L0:		push	EBX
		mov	EBX,ECX
		test	ECX,ECX
		je	L2C
		mov	dword ptr [EBX],offset FLAT:??_7ScopeDsymbol@@6B@
		mov	dword ptr [EBX],offset FLAT:??_7Dsymbol@@6B@
		mov	dword ptr [EBX],offset FLAT:??_7Object@@6B@
		test	dword ptr 8[ESP],1
		je	L2C
		push	EBX
		call	near ptr ??3@YAXPAX@Z
		add	ESP,4
L2C:		mov	EAX,EBX
		pop	EBX
		ret	4
??_GScopeDsymbol@@UAEPAXI@Z	ends
?isPackage@Dsymbol@@UAEPAUPackage@@XZ	comdat
	assume	CS:?isPackage@Dsymbol@@UAEPAUPackage@@XZ
		push	ECX
		xor	EAX,EAX
		pop	ECX
		ret
?isPackage@Dsymbol@@UAEPAUPackage@@XZ	ends
??_GDsymbol@@UAEPAXI@Z	comdat
	assume	CS:??_GDsymbol@@UAEPAXI@Z
L0:		push	EBX
		mov	EBX,ECX
		test	ECX,ECX
		je	L26
		mov	dword ptr [EBX],offset FLAT:??_7Dsymbol@@6B@
		mov	dword ptr [EBX],offset FLAT:??_7Object@@6B@
		test	dword ptr 8[ESP],1
		je	L26
		push	EBX
		call	near ptr ??3@YAXPAX@Z
		add	ESP,4
L26:		mov	EAX,EBX
		pop	EBX
		ret	4
??_GDsymbol@@UAEPAXI@Z	ends
?isScopeDsymbol@Dsymbol@@UAEPAUScopeDsymbol@@XZ	comdat
	assume	CS:?isScopeDsymbol@Dsymbol@@UAEPAUScopeDsymbol@@XZ
		push	ECX
		xor	EAX,EAX
		pop	ECX
		ret
?isScopeDsymbol@Dsymbol@@UAEPAUScopeDsymbol@@XZ	ends
??_GObject@@UAEPAXI@Z	comdat
	assume	CS:??_GObject@@UAEPAXI@Z
L0:		push	EBX
		mov	EBX,ECX
		test	ECX,ECX
		je	L20
		mov	dword ptr [EBX],offset FLAT:??_7Object@@6B@
		test	dword ptr 8[ESP],1
		je	L20
		push	EBX
		call	near ptr ??3@YAXPAX@Z
		add	ESP,4
L20:		mov	EAX,EBX
		pop	EBX
		ret	4
??_GObject@@UAEPAXI@Z	ends
	end
