_TEXT	segment dword use32 public 'CODE'	;size is 617
_TEXT	ends
_DATA	segment dword use32 public 'DATA'	;size is 99
_DATA	ends
CONST	segment dword use32 public 'CONST'	;size is 0
CONST	ends
_BSS	segment dword use32 public 'BSS'	;size is 0
_BSS	ends
FLAT	group	
	extrn	??_7StaticAssert@@6B@
	extrn	??_7Dsymbol@@6B@
	extrn	??_7Object@@6B@
	extrn	??_GStaticAssert@@UAEPAXI@Z
	extrn	?dyncast@Dsymbol@@UAEHXZ
	extrn	?addLocalClass@Dsymbol@@UAEXPAUClassDeclarations@@@Z
	extrn	?checkCtorConstInit@Dsymbol@@UAEXXZ
	extrn	?isPackage@Dsymbol@@UAEPAUPackage@@XZ
	extrn	?isModule@Dsymbol@@UAEPAUModule@@XZ
	extrn	?isEnumMember@Dsymbol@@UAEPAUEnumMember@@XZ
	extrn	?isTemplateDeclaration@Dsymbol@@UAEPAUTemplateDeclaration@@XZ
	extrn	?isTemplateInstance@Dsymbol@@UAEPAUTemplateInstance@@XZ
	extrn	?isTemplateMixin@Dsymbol@@UAEPAUTemplateMixin@@XZ
	extrn	?isDeclaration@Dsymbol@@UAEPAUDeclaration@@XZ
	extrn	?isThisDeclaration@Dsymbol@@UAEPAUThisDeclaration@@XZ
	extrn	?isTupleDeclaration@Dsymbol@@UAEPAUTupleDeclaration@@XZ
	extrn	?isTypedefDeclaration@Dsymbol@@UAEPAUTypedefDeclaration@@XZ
	extrn	?isAliasDeclaration@Dsymbol@@UAEPAUAliasDeclaration@@XZ
	extrn	?isAggregateDeclaration@Dsymbol@@UAEPAUAggregateDeclaration@@XZ
	extrn	?isFuncDeclaration@Dsymbol@@UAEPAUFuncDeclaration@@XZ
	extrn	?isFuncAliasDeclaration@Dsymbol@@UAEPAUFuncAliasDeclaration@@XZ
	extrn	?isFuncLiteralDeclaration@Dsymbol@@UAEPAUFuncLiteralDeclaration@@XZ
	extrn	?isCtorDeclaration@Dsymbol@@UAEPAUCtorDeclaration@@XZ
	extrn	?isPostBlitDeclaration@Dsymbol@@UAEPAUPostBlitDeclaration@@XZ
	extrn	?isDtorDeclaration@Dsymbol@@UAEPAUDtorDeclaration@@XZ
	extrn	?isStaticCtorDeclaration@Dsymbol@@UAEPAUStaticCtorDeclaration@@XZ
	extrn	?isStaticDtorDeclaration@Dsymbol@@UAEPAUStaticDtorDeclaration@@XZ
	extrn	?isInvariantDeclaration@Dsymbol@@UAEPAUInvariantDeclaration@@XZ
	extrn	?isUnitTestDeclaration@Dsymbol@@UAEPAUUnitTestDeclaration@@XZ
	extrn	?isNewDeclaration@Dsymbol@@UAEPAUNewDeclaration@@XZ
	extrn	?isVarDeclaration@Dsymbol@@UAEPAUVarDeclaration@@XZ
	extrn	?isClassDeclaration@Dsymbol@@UAEPAUClassDeclaration@@XZ
	extrn	?isStructDeclaration@Dsymbol@@UAEPAUStructDeclaration@@XZ
	extrn	?isUnionDeclaration@Dsymbol@@UAEPAUUnionDeclaration@@XZ
	extrn	?isInterfaceDeclaration@Dsymbol@@UAEPAUInterfaceDeclaration@@XZ
	extrn	?isScopeDsymbol@Dsymbol@@UAEPAUScopeDsymbol@@XZ
	extrn	?isWithScopeSymbol@Dsymbol@@UAEPAUWithScopeSymbol@@XZ
	extrn	?isArrayScopeSymbol@Dsymbol@@UAEPAUArrayScopeSymbol@@XZ
	extrn	?isImport@Dsymbol@@UAEPAUImport@@XZ
	extrn	?isEnumDeclaration@Dsymbol@@UAEPAUEnumDeclaration@@XZ
	extrn	?isDeleteDeclaration@Dsymbol@@UAEPAUDeleteDeclaration@@XZ
	extrn	?isSymbolDeclaration@Dsymbol@@UAEPAUSymbolDeclaration@@XZ
	extrn	?isAttribDeclaration@Dsymbol@@UAEPAUAttribDeclaration@@XZ
	extrn	?isOverloadSet@Dsymbol@@UAEPAUOverloadSet@@XZ
	extrn	??_GDsymbol@@UAEPAXI@Z
	extrn	??_GObject@@UAEPAXI@Z

	public	??0StaticAssert@@QAE@ULoc@@PAUExpression@@1@Z
	public	?syntaxCopy@StaticAssert@@UAEPAUDsymbol@@PAU2@@Z
	public	?addMember@StaticAssert@@UAEHPAUScope@@PAUScopeDsymbol@@H@Z
	public	?semantic@StaticAssert@@UAEXPAUScope@@@Z
	public	?semantic2@StaticAssert@@UAEXPAUScope@@@Z
	public	?oneMember@StaticAssert@@UAEHPAPAUDsymbol@@@Z
	public	?inlineScan@StaticAssert@@UAEXXZ
includelib SNN.lib
	extrn	?writenl@OutBuffer@@QAEXXZ
	extrn	?writestring@OutBuffer@@QAEXPBD@Z
	extrn	?writeByte@OutBuffer@@QAEXI@Z
	extrn	?error@Dsymbol@@QAAXPBDZZ
	extrn	?fatal@@YAXXZ
	extrn	?global@@3UGlobal@@A
	extrn	?printInstantiationTrace@TemplateInstance@@QAEXXZ
	extrn	??1OutBuffer@@UAE@XZ
	extrn	?toChars@OutBuffer@@UAEPADXZ
	extrn	??0OutBuffer@@QAE@XZ
	extrn	_memset
	extrn	??2@YAPAXI@Z
	extrn	__assert
	extrn	??3@YAXPAX@Z
	extrn	?dyncast@Object@@UAEHXZ
	extrn	?toBuffer@Object@@UAEXPAUOutBuffer@@@Z
	extrn	?toDchars@Object@@UAEPADXZ
	extrn	?toChars@Object@@UAEPADXZ
	extrn	?print@Object@@UAEXXZ
	extrn	?compare@Object@@UAEHPAU1@@Z
	extrn	?hashCode@Object@@UAEIXZ
	extrn	?equals@Object@@UAEHPAU1@@Z
	extrn	?cvMember@Dsymbol@@UAEHPAE@Z
	extrn	?toObjFile@Dsymbol@@UAEXH@Z
	extrn	?toSymbol@Dsymbol@@UAEPAUSymbol@@XZ
	extrn	?emitComment@Dsymbol@@UAEXPAUScope@@@Z
	extrn	?addComment@Dsymbol@@UAEXPAE@Z
	extrn	?hasPointers@Dsymbol@@UAEHXZ
	extrn	?oneMember@Dsymbol@@UAEHPAPAU1@@Z
	extrn	?syntaxCopy@Dsymbol@@UAEPAU1@PAU1@@Z
	extrn	?prot@Dsymbol@@UAE?AW4PROT@@XZ
	extrn	?needThis@Dsymbol@@UAEHXZ
	extrn	?mangle@Dsymbol@@UAEPADXZ
	extrn	?getType@Dsymbol@@UAEPAUType@@XZ
	extrn	?isMember@Dsymbol@@UAEPAUAggregateDeclaration@@XZ
	extrn	?isLabel@Dsymbol@@UAEPAULabelDsymbol@@XZ
	extrn	?isDeprecated@Dsymbol@@UAEHXZ
	extrn	?isImportedSymbol@Dsymbol@@UAEHXZ
	extrn	?isExport@Dsymbol@@UAEHXZ
	extrn	?isClassMember@Dsymbol@@UAEPAUClassDeclaration@@XZ
	extrn	?isThis@Dsymbol@@UAEPAUAggregateDeclaration@@XZ
	extrn	?defineRef@Dsymbol@@UAEXPAU1@@Z
	extrn	?isforwardRef@Dsymbol@@UAEHXZ
	extrn	?size@Dsymbol@@UAEIULoc@@@Z
	extrn	?toJsonBuffer@Dsymbol@@UAEXPAUOutBuffer@@@Z
	extrn	?toDocBuffer@Dsymbol@@UAEXPAUOutBuffer@@@Z
	extrn	?toCBuffer@Dsymbol@@UAEXPAUOutBuffer@@PAUHdrGenState@@@Z
	extrn	?toHBuffer@Dsymbol@@UAEXPAUOutBuffer@@PAUHdrGenState@@@Z
	extrn	?overloadInsert@Dsymbol@@UAEHPAU1@@Z
	extrn	?search@Dsymbol@@UAEPAU1@ULoc@@PAUIdentifier@@H@Z
	extrn	?inlineScan@Dsymbol@@UAEXXZ
	extrn	?semantic3@Dsymbol@@UAEXPAUScope@@@Z
	extrn	?semantic2@Dsymbol@@UAEXPAUScope@@@Z
	extrn	?semantic@Dsymbol@@UAEXPAUScope@@@Z
	extrn	?semantic0@Dsymbol@@UAEXPAUScope@@@Z
	extrn	?importAll@Dsymbol@@UAEXPAUScope@@@Z
	extrn	?setScope@Dsymbol@@UAEXPAUScope@@@Z
	extrn	?addMember@Dsymbol@@UAEHPAUScope@@PAUScopeDsymbol@@H@Z
	extrn	?toAlias@Dsymbol@@UAEPAU1@XZ
	extrn	?kind@Dsymbol@@UAEPBDXZ
	extrn	?toPrettyChars@Dsymbol@@UAEPBDXZ
	extrn	?toChars@Dsymbol@@UAEPADXZ
	extrn	?equals@Dsymbol@@UAEHPAUObject@@@Z
	extrn	??0Dsymbol@@QAE@PAUIdentifier@@@Z
	extrn	?empty@Id@@2PAUIdentifier@@A

	public	?toObjFile@StaticAssert@@UAEXH@Z
	public	?kind@StaticAssert@@UAEPBDXZ
	public	?toCBuffer@StaticAssert@@UAEXPAUOutBuffer@@PAUHdrGenState@@@Z
??_7StaticAssert@@6B@	COMDAT flags=x0 attr=x10 align=x0 
??_7Dsymbol@@6B@	COMDAT flags=x0 attr=x10 align=x0 
??_7Object@@6B@	COMDAT flags=x0 attr=x10 align=x0 
??_GStaticAssert@@UAEPAXI@Z	COMDAT flags=x0 attr=x10 align=x0 
?dyncast@Dsymbol@@UAEHXZ	COMDAT flags=x0 attr=x10 align=x0 
?addLocalClass@Dsymbol@@UAEXPAUClassDeclarations@@@Z	COMDAT flags=x0 attr=x10 align=x0 
?checkCtorConstInit@Dsymbol@@UAEXXZ	COMDAT flags=x0 attr=x10 align=x0 
?isPackage@Dsymbol@@UAEPAUPackage@@XZ	COMDAT flags=x0 attr=x10 align=x0 
?isModule@Dsymbol@@UAEPAUModule@@XZ	COMDAT flags=x0 attr=x10 align=x0 
?isEnumMember@Dsymbol@@UAEPAUEnumMember@@XZ	COMDAT flags=x0 attr=x10 align=x0 
?isTemplateDeclaration@Dsymbol@@UAEPAUTemplateDeclaration@@XZ	COMDAT flags=x0 attr=x10 align=x0 
?isTemplateInstance@Dsymbol@@UAEPAUTemplateInstance@@XZ	COMDAT flags=x0 attr=x10 align=x0 
?isTemplateMixin@Dsymbol@@UAEPAUTemplateMixin@@XZ	COMDAT flags=x0 attr=x10 align=x0 
?isDeclaration@Dsymbol@@UAEPAUDeclaration@@XZ	COMDAT flags=x0 attr=x10 align=x0 
?isThisDeclaration@Dsymbol@@UAEPAUThisDeclaration@@XZ	COMDAT flags=x0 attr=x10 align=x0 
?isTupleDeclaration@Dsymbol@@UAEPAUTupleDeclaration@@XZ	COMDAT flags=x0 attr=x10 align=x0 
?isTypedefDeclaration@Dsymbol@@UAEPAUTypedefDeclaration@@XZ	COMDAT flags=x0 attr=x10 align=x0 
?isAliasDeclaration@Dsymbol@@UAEPAUAliasDeclaration@@XZ	COMDAT flags=x0 attr=x10 align=x0 
?isAggregateDeclaration@Dsymbol@@UAEPAUAggregateDeclaration@@XZ	COMDAT flags=x0 attr=x10 align=x0 
?isFuncDeclaration@Dsymbol@@UAEPAUFuncDeclaration@@XZ	COMDAT flags=x0 attr=x10 align=x0 
?isFuncAliasDeclaration@Dsymbol@@UAEPAUFuncAliasDeclaration@@XZ	COMDAT flags=x0 attr=x10 align=x0 
?isFuncLiteralDeclaration@Dsymbol@@UAEPAUFuncLiteralDeclaration@@XZ	COMDAT flags=x0 attr=x10 align=x0 
?isCtorDeclaration@Dsymbol@@UAEPAUCtorDeclaration@@XZ	COMDAT flags=x0 attr=x10 align=x0 
?isPostBlitDeclaration@Dsymbol@@UAEPAUPostBlitDeclaration@@XZ	COMDAT flags=x0 attr=x10 align=x0 
?isDtorDeclaration@Dsymbol@@UAEPAUDtorDeclaration@@XZ	COMDAT flags=x0 attr=x10 align=x0 
?isStaticCtorDeclaration@Dsymbol@@UAEPAUStaticCtorDeclaration@@XZ	COMDAT flags=x0 attr=x10 align=x0 
?isStaticDtorDeclaration@Dsymbol@@UAEPAUStaticDtorDeclaration@@XZ	COMDAT flags=x0 attr=x10 align=x0 
?isInvariantDeclaration@Dsymbol@@UAEPAUInvariantDeclaration@@XZ	COMDAT flags=x0 attr=x10 align=x0 
?isUnitTestDeclaration@Dsymbol@@UAEPAUUnitTestDeclaration@@XZ	COMDAT flags=x0 attr=x10 align=x0 
?isNewDeclaration@Dsymbol@@UAEPAUNewDeclaration@@XZ	COMDAT flags=x0 attr=x10 align=x0 
?isVarDeclaration@Dsymbol@@UAEPAUVarDeclaration@@XZ	COMDAT flags=x0 attr=x10 align=x0 
?isClassDeclaration@Dsymbol@@UAEPAUClassDeclaration@@XZ	COMDAT flags=x0 attr=x10 align=x0 
?isStructDeclaration@Dsymbol@@UAEPAUStructDeclaration@@XZ	COMDAT flags=x0 attr=x10 align=x0 
?isUnionDeclaration@Dsymbol@@UAEPAUUnionDeclaration@@XZ	COMDAT flags=x0 attr=x10 align=x0 
?isInterfaceDeclaration@Dsymbol@@UAEPAUInterfaceDeclaration@@XZ	COMDAT flags=x0 attr=x10 align=x0 
?isScopeDsymbol@Dsymbol@@UAEPAUScopeDsymbol@@XZ	COMDAT flags=x0 attr=x10 align=x0 
?isWithScopeSymbol@Dsymbol@@UAEPAUWithScopeSymbol@@XZ	COMDAT flags=x0 attr=x10 align=x0 
?isArrayScopeSymbol@Dsymbol@@UAEPAUArrayScopeSymbol@@XZ	COMDAT flags=x0 attr=x10 align=x0 
?isImport@Dsymbol@@UAEPAUImport@@XZ	COMDAT flags=x0 attr=x10 align=x0 
?isEnumDeclaration@Dsymbol@@UAEPAUEnumDeclaration@@XZ	COMDAT flags=x0 attr=x10 align=x0 
?isDeleteDeclaration@Dsymbol@@UAEPAUDeleteDeclaration@@XZ	COMDAT flags=x0 attr=x10 align=x0 
?isSymbolDeclaration@Dsymbol@@UAEPAUSymbolDeclaration@@XZ	COMDAT flags=x0 attr=x10 align=x0 
?isAttribDeclaration@Dsymbol@@UAEPAUAttribDeclaration@@XZ	COMDAT flags=x0 attr=x10 align=x0 
?isOverloadSet@Dsymbol@@UAEPAUOverloadSet@@XZ	COMDAT flags=x0 attr=x10 align=x0 
??_GDsymbol@@UAEPAXI@Z	COMDAT flags=x0 attr=x10 align=x0 
??_GObject@@UAEPAXI@Z	COMDAT flags=x0 attr=x10 align=x0 

_TEXT	segment
	assume	CS:_TEXT
??0StaticAssert@@QAE@ULoc@@PAUExpression@@1@Z:
		push	ECX
		push	EBX
		mov	EBX,ECX
		push	ESI
		push	dword ptr ?empty@Id@@2PAUIdentifier@@A
		call	near ptr ??0Dsymbol@@QAE@PAUIdentifier@@@Z
		mov	EAX,010h[ESP]
		mov	EDX,014h[ESP]
		mov	01Ch[EBX],EAX
		mov	ECX,018h[ESP]
		mov	ESI,01Ch[ESP]
		mov	dword ptr [EBX],offset FLAT:??_7StaticAssert@@6B@
		mov	EAX,EBX
		mov	020h[EBX],EDX
		mov	028h[EBX],ECX
		mov	02Ch[EBX],ESI
		pop	ESI
		pop	EBX
		pop	ECX
		ret	010h
		nop
		nop
		nop
		nop
		nop
		nop
?syntaxCopy@StaticAssert@@UAEPAUDsymbol@@PAU2@@Z:
		push	ECX
		push	ECX
		push	EBX
		push	ESI
		push	EDI
		cmp	dword ptr 018h[ESP],0
		je	L5D
		push	026h
		push	offset FLAT:_DATA
		push	offset FLAT:_DATA[010h]
		call	near ptr __assert
L5D:		push	030h
		call	near ptr ??2@YAPAXI@Z
		add	ESP,4
		mov	EBX,EAX
		test	EAX,EAX
		je	L9E
		mov	EAX,010h[ESP]
		mov	ECX,02Ch[EAX]
		test	ECX,ECX
		je	L7F
		mov	EDX,[ECX]
		call	dword ptr 024h[EDX]
		jmp short	L81
L7F:		xor	EAX,EAX
L81:		mov	ESI,010h[ESP]
		mov	ECX,028h[ESI]
		push	EAX
		mov	EDI,[ECX]
		call	dword ptr 024h[EDI]
		mov	ECX,EBX
		push	EAX
		push	dword ptr 020h[ESI]
		push	dword ptr 01Ch[ESI]
		call	near ptr ??0StaticAssert@@QAE@ULoc@@PAUExpression@@1@Z
		mov	EBX,EAX
L9E:		mov	EAX,EBX
		pop	EDI
		pop	ESI
		pop	EBX
		add	ESP,8
		ret	4
		nop
		nop
		nop
		nop
		nop
		nop
		nop
?addMember@StaticAssert@@UAEHPAUScope@@PAUScopeDsymbol@@H@Z:
		push	ECX
		xor	EAX,EAX
		pop	ECX
		ret	0Ch
?semantic@StaticAssert@@UAEXPAUScope@@@Z:
		push	ECX
		pop	EAX
		ret	4
		nop
		nop
		nop
		nop
?semantic2@StaticAssert@@UAEXPAUScope@@@Z:
		sub	ESP,048h
		push	EBX
		push	ESI
		push	EDI
		mov	050h[ESP],ECX
		mov	ECX,028h[ECX]
		mov	EAX,[ECX]
		push	0
		push	6
		push	dword ptr 060h[ESP]
		call	dword ptr 028h[EAX]
		mov	EBX,EAX
		mov	EDX,[EBX]
		mov	ECX,EAX
		call	dword ptr 074h[EDX]
		mov	EBX,EAX
		mov	ESI,[EBX]
		mov	ECX,EAX
		call	dword ptr 080h[ESI]
		test	EAX,EAX
		je	L1A5
		mov	EBX,050h[ESP]
		cmp	dword ptr 02Ch[EBX],0
		je	L16C
		push	034h
		push	0
		lea	EAX,014h[ESP]
		push	EAX
		call	near ptr _memset
		lea	ECX,04Ch[ESP]
		call	near ptr ??0OutBuffer@@QAE@XZ
		mov	ECX,02Ch[EBX]
		mov	EDX,[ECX]
		push	dword ptr 064h[ESP]
		call	dword ptr 028h[EDX]
		mov	ECX,EAX
		mov	02Ch[EBX],EAX
		mov	EAX,[EAX]
		push	6
		call	dword ptr 074h[EAX]
		lea	ESI,018h[ESP]
		mov	02Ch[EBX],EAX
		mov	dword ptr 020h[ESP],1
		push	ESI
		lea	EDI,050h[ESP]
		mov	ECX,02Ch[EBX]
		push	EDI
		mov	EDX,[ECX]
		call	dword ptr 048h[EDX]
		mov	ECX,EDI
		call	near ptr ?toChars@OutBuffer@@UAEPADXZ
		push	EAX
		push	offset FLAT:_DATA[014h]
		push	EBX
		call	near ptr ?error@Dsymbol@@QAAXPBDZZ
		mov	ECX,EDI
		call	near ptr ??1OutBuffer@@UAE@XZ
		add	ESP,018h
		jmp short	L183
L16C:		mov	ECX,028h[EBX]
		mov	ESI,[ECX]
		call	dword ptr 014h[ESI]
		push	EAX
		push	offset FLAT:_DATA[018h]
		push	EBX
		call	near ptr ?error@Dsymbol@@QAAXPBDZZ
		add	ESP,0Ch
L183:		mov	EAX,058h[ESP]
		mov	EBX,024h[EAX]
		test	EBX,EBX
		je	L195
		mov	ECX,EBX
		call	near ptr ?printInstantiationTrace@TemplateInstance@@QAEXXZ
L195:		cmp	dword ptr ?global@@3UGlobal@@A[0100h],0
		jne	L1D0
		call	near ptr ?fatal@@YAXXZ
		jmp short	L1D0
L1A5:		push	1
		mov	EAX,[EBX]
		mov	ECX,EBX
		call	dword ptr 080h[EAX]
		test	EAX,EAX
		jne	L1D0
		mov	EBX,050h[ESP]
		mov	ECX,028h[EBX]
		mov	EDX,[ECX]
		call	dword ptr 014h[EDX]
		push	EAX
		push	offset FLAT:_DATA[028h]
		push	EBX
		call	near ptr ?error@Dsymbol@@QAAXPBDZZ
		add	ESP,0Ch
L1D0:		pop	EDI
		pop	ESI
		pop	EBX
		add	ESP,048h
		ret	4
		nop
		nop
		nop
		nop
		nop
		nop
		nop
?oneMember@StaticAssert@@UAEHPAPAUDsymbol@@@Z:
		push	ECX
		mov	EAX,8[ESP]
		mov	dword ptr [EAX],0
		mov	EAX,1
		pop	ECX
		ret	4
?inlineScan@StaticAssert@@UAEXXZ:
		push	ECX
		pop	EAX
		ret
?toObjFile@StaticAssert@@UAEXH@Z:
		push	ECX
		pop	EAX
		ret	4
		nop
		nop
		nop
		nop
?kind@StaticAssert@@UAEPBDXZ:
		push	ECX
		mov	EAX,offset FLAT:_DATA[050h]
		pop	ECX
		ret
?toCBuffer@StaticAssert@@UAEXPAUOutBuffer@@PAUHdrGenState@@@Z:
		push	ECX
		push	EBX
		mov	EBX,0Ch[ESP]
		push	ESI
		mov	ESI,ECX
		mov	EDX,[ESI]
		call	dword ptr 028h[EDX]
		mov	ECX,EBX
		push	EAX
		call	near ptr ?writestring@OutBuffer@@QAEXPBD@Z
		mov	ECX,EBX
		push	028h
		call	near ptr ?writeByte@OutBuffer@@QAEXI@Z
		mov	ECX,028h[ESI]
		mov	EDX,[ECX]
		push	dword ptr 014h[ESP]
		push	EBX
		call	dword ptr 048h[EDX]
		cmp	dword ptr 02Ch[ESI],0
		je	L250
		push	02Ch
		mov	ECX,EBX
		call	near ptr ?writeByte@OutBuffer@@QAEXI@Z
		mov	ECX,02Ch[ESI]
		mov	EDX,[ECX]
		push	dword ptr 014h[ESP]
		push	EBX
		call	dword ptr 048h[EDX]
L250:		push	offset FLAT:_DATA[060h]
		mov	ECX,EBX
		call	near ptr ?writestring@OutBuffer@@QAEXPBD@Z
		mov	ECX,EBX
		call	near ptr ?writenl@OutBuffer@@QAEXXZ
		pop	ESI
		pop	EBX
		pop	EAX
		ret	8
_TEXT	ends
_DATA	segment
D0	db	073h,074h,061h,074h,069h,063h,061h,073h
	db	073h,065h,072h,074h,02eh,063h,000h,000h
D10	db	021h,073h,000h,000h
D14	db	025h,073h,000h,000h
D18	db	028h,025h,073h,029h,020h,069h,073h,020h
	db	066h,061h,06ch,073h,065h,000h,000h,000h
D28	db	028h,025h,073h,029h,020h,069h,073h,020h
	db	06eh,06fh,074h,020h,065h,076h,061h,06ch
	db	075h,061h,074h,061h,062h,06ch,065h,020h
	db	061h,074h,020h,063h,06fh,06dh,070h,069h
	db	06ch,065h,020h,074h,069h,06dh,065h,000h
D50	db	073h,074h,061h,074h,069h,063h,020h,061h
	db	073h,073h,065h,072h,074h,000h,000h,000h
D60	db	029h,03bh,000h
_DATA	ends
CONST	segment
CONST	ends
_BSS	segment
_BSS	ends
??_7StaticAssert@@6B@	comdat
	dd	offset FLAT:??_GStaticAssert@@UAEPAXI@Z
	dd	offset FLAT:?equals@Dsymbol@@UAEHPAUObject@@@Z
	dd	offset FLAT:?hashCode@Object@@UAEIXZ
	dd	offset FLAT:?compare@Object@@UAEHPAU1@@Z
	dd	offset FLAT:?print@Object@@UAEXXZ
	dd	offset FLAT:?toChars@Dsymbol@@UAEPADXZ
	dd	offset FLAT:?toDchars@Object@@UAEPADXZ
	dd	offset FLAT:?toBuffer@Object@@UAEXPAUOutBuffer@@@Z
	dd	offset FLAT:?dyncast@Dsymbol@@UAEHXZ
	dd	offset FLAT:?toPrettyChars@Dsymbol@@UAEPBDXZ
	dd	offset FLAT:?kind@StaticAssert@@UAEPBDXZ
	dd	offset FLAT:?toAlias@Dsymbol@@UAEPAU1@XZ
	dd	offset FLAT:?addMember@StaticAssert@@UAEHPAUScope@@PAUScopeDsymbol@@H@Z
	dd	offset FLAT:?setScope@Dsymbol@@UAEXPAUScope@@@Z
	dd	offset FLAT:?importAll@Dsymbol@@UAEXPAUScope@@@Z
	dd	offset FLAT:?semantic0@Dsymbol@@UAEXPAUScope@@@Z
	dd	offset FLAT:?semantic@StaticAssert@@UAEXPAUScope@@@Z
	dd	offset FLAT:?semantic2@StaticAssert@@UAEXPAUScope@@@Z
	dd	offset FLAT:?semantic3@Dsymbol@@UAEXPAUScope@@@Z
	dd	offset FLAT:?inlineScan@StaticAssert@@UAEXXZ
	dd	offset FLAT:?search@Dsymbol@@UAEPAU1@ULoc@@PAUIdentifier@@H@Z
	dd	offset FLAT:?overloadInsert@Dsymbol@@UAEHPAU1@@Z
	dd	offset FLAT:?toHBuffer@Dsymbol@@UAEXPAUOutBuffer@@PAUHdrGenState@@@Z
	dd	offset FLAT:?toCBuffer@StaticAssert@@UAEXPAUOutBuffer@@PAUHdrGenState@@@Z
	dd	offset FLAT:?toDocBuffer@Dsymbol@@UAEXPAUOutBuffer@@@Z
	dd	offset FLAT:?toJsonBuffer@Dsymbol@@UAEXPAUOutBuffer@@@Z
	dd	offset FLAT:?size@Dsymbol@@UAEIULoc@@@Z
	dd	offset FLAT:?isforwardRef@Dsymbol@@UAEHXZ
	dd	offset FLAT:?defineRef@Dsymbol@@UAEXPAU1@@Z
	dd	offset FLAT:?isThis@Dsymbol@@UAEPAUAggregateDeclaration@@XZ
	dd	offset FLAT:?isClassMember@Dsymbol@@UAEPAUClassDeclaration@@XZ
	dd	offset FLAT:?isExport@Dsymbol@@UAEHXZ
	dd	offset FLAT:?isImportedSymbol@Dsymbol@@UAEHXZ
	dd	offset FLAT:?isDeprecated@Dsymbol@@UAEHXZ
	dd	offset FLAT:?isLabel@Dsymbol@@UAEPAULabelDsymbol@@XZ
	dd	offset FLAT:?isMember@Dsymbol@@UAEPAUAggregateDeclaration@@XZ
	dd	offset FLAT:?getType@Dsymbol@@UAEPAUType@@XZ
	dd	offset FLAT:?mangle@Dsymbol@@UAEPADXZ
	dd	offset FLAT:?needThis@Dsymbol@@UAEHXZ
	dd	offset FLAT:?prot@Dsymbol@@UAE?AW4PROT@@XZ
	dd	offset FLAT:?syntaxCopy@StaticAssert@@UAEPAUDsymbol@@PAU2@@Z
	dd	offset FLAT:?oneMember@StaticAssert@@UAEHPAPAUDsymbol@@@Z
	dd	offset FLAT:?hasPointers@Dsymbol@@UAEHXZ
	dd	offset FLAT:?addLocalClass@Dsymbol@@UAEXPAUClassDeclarations@@@Z
	dd	offset FLAT:?checkCtorConstInit@Dsymbol@@UAEXXZ
	dd	offset FLAT:?addComment@Dsymbol@@UAEXPAE@Z
	dd	offset FLAT:?emitComment@Dsymbol@@UAEXPAUScope@@@Z
	dd	offset FLAT:?toSymbol@Dsymbol@@UAEPAUSymbol@@XZ
	dd	offset FLAT:?toObjFile@StaticAssert@@UAEXH@Z
	dd	offset FLAT:?cvMember@Dsymbol@@UAEHPAE@Z
	dd	offset FLAT:?isPackage@Dsymbol@@UAEPAUPackage@@XZ
	dd	offset FLAT:?isModule@Dsymbol@@UAEPAUModule@@XZ
	dd	offset FLAT:?isEnumMember@Dsymbol@@UAEPAUEnumMember@@XZ
	dd	offset FLAT:?isTemplateDeclaration@Dsymbol@@UAEPAUTemplateDeclaration@@XZ
	dd	offset FLAT:?isTemplateInstance@Dsymbol@@UAEPAUTemplateInstance@@XZ
	dd	offset FLAT:?isTemplateMixin@Dsymbol@@UAEPAUTemplateMixin@@XZ
	dd	offset FLAT:?isDeclaration@Dsymbol@@UAEPAUDeclaration@@XZ
	dd	offset FLAT:?isThisDeclaration@Dsymbol@@UAEPAUThisDeclaration@@XZ
	dd	offset FLAT:?isTupleDeclaration@Dsymbol@@UAEPAUTupleDeclaration@@XZ
	dd	offset FLAT:?isTypedefDeclaration@Dsymbol@@UAEPAUTypedefDeclaration@@XZ
	dd	offset FLAT:?isAliasDeclaration@Dsymbol@@UAEPAUAliasDeclaration@@XZ
	dd	offset FLAT:?isAggregateDeclaration@Dsymbol@@UAEPAUAggregateDeclaration@@XZ
	dd	offset FLAT:?isFuncDeclaration@Dsymbol@@UAEPAUFuncDeclaration@@XZ
	dd	offset FLAT:?isFuncAliasDeclaration@Dsymbol@@UAEPAUFuncAliasDeclaration@@XZ
	dd	offset FLAT:?isFuncLiteralDeclaration@Dsymbol@@UAEPAUFuncLiteralDeclaration@@XZ
	dd	offset FLAT:?isCtorDeclaration@Dsymbol@@UAEPAUCtorDeclaration@@XZ
	dd	offset FLAT:?isPostBlitDeclaration@Dsymbol@@UAEPAUPostBlitDeclaration@@XZ
	dd	offset FLAT:?isDtorDeclaration@Dsymbol@@UAEPAUDtorDeclaration@@XZ
	dd	offset FLAT:?isStaticCtorDeclaration@Dsymbol@@UAEPAUStaticCtorDeclaration@@XZ
	dd	offset FLAT:?isStaticDtorDeclaration@Dsymbol@@UAEPAUStaticDtorDeclaration@@XZ
	dd	offset FLAT:?isInvariantDeclaration@Dsymbol@@UAEPAUInvariantDeclaration@@XZ
	dd	offset FLAT:?isUnitTestDeclaration@Dsymbol@@UAEPAUUnitTestDeclaration@@XZ
	dd	offset FLAT:?isNewDeclaration@Dsymbol@@UAEPAUNewDeclaration@@XZ
	dd	offset FLAT:?isVarDeclaration@Dsymbol@@UAEPAUVarDeclaration@@XZ
	dd	offset FLAT:?isClassDeclaration@Dsymbol@@UAEPAUClassDeclaration@@XZ
	dd	offset FLAT:?isStructDeclaration@Dsymbol@@UAEPAUStructDeclaration@@XZ
	dd	offset FLAT:?isUnionDeclaration@Dsymbol@@UAEPAUUnionDeclaration@@XZ
	dd	offset FLAT:?isInterfaceDeclaration@Dsymbol@@UAEPAUInterfaceDeclaration@@XZ
	dd	offset FLAT:?isScopeDsymbol@Dsymbol@@UAEPAUScopeDsymbol@@XZ
	dd	offset FLAT:?isWithScopeSymbol@Dsymbol@@UAEPAUWithScopeSymbol@@XZ
	dd	offset FLAT:?isArrayScopeSymbol@Dsymbol@@UAEPAUArrayScopeSymbol@@XZ
	dd	offset FLAT:?isImport@Dsymbol@@UAEPAUImport@@XZ
	dd	offset FLAT:?isEnumDeclaration@Dsymbol@@UAEPAUEnumDeclaration@@XZ
	dd	offset FLAT:?isDeleteDeclaration@Dsymbol@@UAEPAUDeleteDeclaration@@XZ
	dd	offset FLAT:?isSymbolDeclaration@Dsymbol@@UAEPAUSymbolDeclaration@@XZ
	dd	offset FLAT:?isAttribDeclaration@Dsymbol@@UAEPAUAttribDeclaration@@XZ
	dd	offset FLAT:?isOverloadSet@Dsymbol@@UAEPAUOverloadSet@@XZ
??_7StaticAssert@@6B@	ends
??_7Dsymbol@@6B@	comdat
	dd	offset FLAT:??_GDsymbol@@UAEPAXI@Z
	dd	offset FLAT:?equals@Dsymbol@@UAEHPAUObject@@@Z
	dd	offset FLAT:?hashCode@Object@@UAEIXZ
	dd	offset FLAT:?compare@Object@@UAEHPAU1@@Z
	dd	offset FLAT:?print@Object@@UAEXXZ
	dd	offset FLAT:?toChars@Dsymbol@@UAEPADXZ
	dd	offset FLAT:?toDchars@Object@@UAEPADXZ
	dd	offset FLAT:?toBuffer@Object@@UAEXPAUOutBuffer@@@Z
	dd	offset FLAT:?dyncast@Dsymbol@@UAEHXZ
	dd	offset FLAT:?toPrettyChars@Dsymbol@@UAEPBDXZ
	dd	offset FLAT:?kind@Dsymbol@@UAEPBDXZ
	dd	offset FLAT:?toAlias@Dsymbol@@UAEPAU1@XZ
	dd	offset FLAT:?addMember@Dsymbol@@UAEHPAUScope@@PAUScopeDsymbol@@H@Z
	dd	offset FLAT:?setScope@Dsymbol@@UAEXPAUScope@@@Z
	dd	offset FLAT:?importAll@Dsymbol@@UAEXPAUScope@@@Z
	dd	offset FLAT:?semantic0@Dsymbol@@UAEXPAUScope@@@Z
	dd	offset FLAT:?semantic@Dsymbol@@UAEXPAUScope@@@Z
	dd	offset FLAT:?semantic2@Dsymbol@@UAEXPAUScope@@@Z
	dd	offset FLAT:?semantic3@Dsymbol@@UAEXPAUScope@@@Z
	dd	offset FLAT:?inlineScan@Dsymbol@@UAEXXZ
	dd	offset FLAT:?search@Dsymbol@@UAEPAU1@ULoc@@PAUIdentifier@@H@Z
	dd	offset FLAT:?overloadInsert@Dsymbol@@UAEHPAU1@@Z
	dd	offset FLAT:?toHBuffer@Dsymbol@@UAEXPAUOutBuffer@@PAUHdrGenState@@@Z
	dd	offset FLAT:?toCBuffer@Dsymbol@@UAEXPAUOutBuffer@@PAUHdrGenState@@@Z
	dd	offset FLAT:?toDocBuffer@Dsymbol@@UAEXPAUOutBuffer@@@Z
	dd	offset FLAT:?toJsonBuffer@Dsymbol@@UAEXPAUOutBuffer@@@Z
	dd	offset FLAT:?size@Dsymbol@@UAEIULoc@@@Z
	dd	offset FLAT:?isforwardRef@Dsymbol@@UAEHXZ
	dd	offset FLAT:?defineRef@Dsymbol@@UAEXPAU1@@Z
	dd	offset FLAT:?isThis@Dsymbol@@UAEPAUAggregateDeclaration@@XZ
	dd	offset FLAT:?isClassMember@Dsymbol@@UAEPAUClassDeclaration@@XZ
	dd	offset FLAT:?isExport@Dsymbol@@UAEHXZ
	dd	offset FLAT:?isImportedSymbol@Dsymbol@@UAEHXZ
	dd	offset FLAT:?isDeprecated@Dsymbol@@UAEHXZ
	dd	offset FLAT:?isLabel@Dsymbol@@UAEPAULabelDsymbol@@XZ
	dd	offset FLAT:?isMember@Dsymbol@@UAEPAUAggregateDeclaration@@XZ
	dd	offset FLAT:?getType@Dsymbol@@UAEPAUType@@XZ
	dd	offset FLAT:?mangle@Dsymbol@@UAEPADXZ
	dd	offset FLAT:?needThis@Dsymbol@@UAEHXZ
	dd	offset FLAT:?prot@Dsymbol@@UAE?AW4PROT@@XZ
	dd	offset FLAT:?syntaxCopy@Dsymbol@@UAEPAU1@PAU1@@Z
	dd	offset FLAT:?oneMember@Dsymbol@@UAEHPAPAU1@@Z
	dd	offset FLAT:?hasPointers@Dsymbol@@UAEHXZ
	dd	offset FLAT:?addLocalClass@Dsymbol@@UAEXPAUClassDeclarations@@@Z
	dd	offset FLAT:?checkCtorConstInit@Dsymbol@@UAEXXZ
	dd	offset FLAT:?addComment@Dsymbol@@UAEXPAE@Z
	dd	offset FLAT:?emitComment@Dsymbol@@UAEXPAUScope@@@Z
	dd	offset FLAT:?toSymbol@Dsymbol@@UAEPAUSymbol@@XZ
	dd	offset FLAT:?toObjFile@Dsymbol@@UAEXH@Z
	dd	offset FLAT:?cvMember@Dsymbol@@UAEHPAE@Z
	dd	offset FLAT:?isPackage@Dsymbol@@UAEPAUPackage@@XZ
	dd	offset FLAT:?isModule@Dsymbol@@UAEPAUModule@@XZ
	dd	offset FLAT:?isEnumMember@Dsymbol@@UAEPAUEnumMember@@XZ
	dd	offset FLAT:?isTemplateDeclaration@Dsymbol@@UAEPAUTemplateDeclaration@@XZ
	dd	offset FLAT:?isTemplateInstance@Dsymbol@@UAEPAUTemplateInstance@@XZ
	dd	offset FLAT:?isTemplateMixin@Dsymbol@@UAEPAUTemplateMixin@@XZ
	dd	offset FLAT:?isDeclaration@Dsymbol@@UAEPAUDeclaration@@XZ
	dd	offset FLAT:?isThisDeclaration@Dsymbol@@UAEPAUThisDeclaration@@XZ
	dd	offset FLAT:?isTupleDeclaration@Dsymbol@@UAEPAUTupleDeclaration@@XZ
	dd	offset FLAT:?isTypedefDeclaration@Dsymbol@@UAEPAUTypedefDeclaration@@XZ
	dd	offset FLAT:?isAliasDeclaration@Dsymbol@@UAEPAUAliasDeclaration@@XZ
	dd	offset FLAT:?isAggregateDeclaration@Dsymbol@@UAEPAUAggregateDeclaration@@XZ
	dd	offset FLAT:?isFuncDeclaration@Dsymbol@@UAEPAUFuncDeclaration@@XZ
	dd	offset FLAT:?isFuncAliasDeclaration@Dsymbol@@UAEPAUFuncAliasDeclaration@@XZ
	dd	offset FLAT:?isFuncLiteralDeclaration@Dsymbol@@UAEPAUFuncLiteralDeclaration@@XZ
	dd	offset FLAT:?isCtorDeclaration@Dsymbol@@UAEPAUCtorDeclaration@@XZ
	dd	offset FLAT:?isPostBlitDeclaration@Dsymbol@@UAEPAUPostBlitDeclaration@@XZ
	dd	offset FLAT:?isDtorDeclaration@Dsymbol@@UAEPAUDtorDeclaration@@XZ
	dd	offset FLAT:?isStaticCtorDeclaration@Dsymbol@@UAEPAUStaticCtorDeclaration@@XZ
	dd	offset FLAT:?isStaticDtorDeclaration@Dsymbol@@UAEPAUStaticDtorDeclaration@@XZ
	dd	offset FLAT:?isInvariantDeclaration@Dsymbol@@UAEPAUInvariantDeclaration@@XZ
	dd	offset FLAT:?isUnitTestDeclaration@Dsymbol@@UAEPAUUnitTestDeclaration@@XZ
	dd	offset FLAT:?isNewDeclaration@Dsymbol@@UAEPAUNewDeclaration@@XZ
	dd	offset FLAT:?isVarDeclaration@Dsymbol@@UAEPAUVarDeclaration@@XZ
	dd	offset FLAT:?isClassDeclaration@Dsymbol@@UAEPAUClassDeclaration@@XZ
	dd	offset FLAT:?isStructDeclaration@Dsymbol@@UAEPAUStructDeclaration@@XZ
	dd	offset FLAT:?isUnionDeclaration@Dsymbol@@UAEPAUUnionDeclaration@@XZ
	dd	offset FLAT:?isInterfaceDeclaration@Dsymbol@@UAEPAUInterfaceDeclaration@@XZ
	dd	offset FLAT:?isScopeDsymbol@Dsymbol@@UAEPAUScopeDsymbol@@XZ
	dd	offset FLAT:?isWithScopeSymbol@Dsymbol@@UAEPAUWithScopeSymbol@@XZ
	dd	offset FLAT:?isArrayScopeSymbol@Dsymbol@@UAEPAUArrayScopeSymbol@@XZ
	dd	offset FLAT:?isImport@Dsymbol@@UAEPAUImport@@XZ
	dd	offset FLAT:?isEnumDeclaration@Dsymbol@@UAEPAUEnumDeclaration@@XZ
	dd	offset FLAT:?isDeleteDeclaration@Dsymbol@@UAEPAUDeleteDeclaration@@XZ
	dd	offset FLAT:?isSymbolDeclaration@Dsymbol@@UAEPAUSymbolDeclaration@@XZ
	dd	offset FLAT:?isAttribDeclaration@Dsymbol@@UAEPAUAttribDeclaration@@XZ
	dd	offset FLAT:?isOverloadSet@Dsymbol@@UAEPAUOverloadSet@@XZ
??_7Dsymbol@@6B@	ends
??_7Object@@6B@	comdat
	dd	offset FLAT:??_GObject@@UAEPAXI@Z
	dd	offset FLAT:?equals@Object@@UAEHPAU1@@Z
	dd	offset FLAT:?hashCode@Object@@UAEIXZ
	dd	offset FLAT:?compare@Object@@UAEHPAU1@@Z
	dd	offset FLAT:?print@Object@@UAEXXZ
	dd	offset FLAT:?toChars@Object@@UAEPADXZ
	dd	offset FLAT:?toDchars@Object@@UAEPADXZ
	dd	offset FLAT:?toBuffer@Object@@UAEXPAUOutBuffer@@@Z
	dd	offset FLAT:?dyncast@Object@@UAEHXZ
??_7Object@@6B@	ends
??_GStaticAssert@@UAEPAXI@Z	comdat
	assume	CS:??_GStaticAssert@@UAEPAXI@Z
L0:		push	EBX
		mov	EBX,ECX
		test	ECX,ECX
		je	L2C
		mov	dword ptr [EBX],offset FLAT:??_7StaticAssert@@6B@
		mov	dword ptr [EBX],offset FLAT:??_7Dsymbol@@6B@
		mov	dword ptr [EBX],offset FLAT:??_7Object@@6B@
		test	dword ptr 8[ESP],1
		je	L2C
		push	EBX
		call	near ptr ??3@YAXPAX@Z
		add	ESP,4
L2C:		mov	EAX,EBX
		pop	EBX
		ret	4
??_GStaticAssert@@UAEPAXI@Z	ends
?dyncast@Dsymbol@@UAEHXZ	comdat
	assume	CS:?dyncast@Dsymbol@@UAEHXZ
		push	ECX
		mov	EAX,2
		pop	ECX
		ret
?dyncast@Dsymbol@@UAEHXZ	ends
?addLocalClass@Dsymbol@@UAEXPAUClassDeclarations@@@Z	comdat
	assume	CS:?addLocalClass@Dsymbol@@UAEXPAUClassDeclarations@@@Z
		push	ECX
		pop	EAX
		ret	4
?addLocalClass@Dsymbol@@UAEXPAUClassDeclarations@@@Z	ends
?checkCtorConstInit@Dsymbol@@UAEXXZ	comdat
	assume	CS:?checkCtorConstInit@Dsymbol@@UAEXXZ
		push	ECX
		pop	EAX
		ret
?checkCtorConstInit@Dsymbol@@UAEXXZ	ends
?isPackage@Dsymbol@@UAEPAUPackage@@XZ	comdat
	assume	CS:?isPackage@Dsymbol@@UAEPAUPackage@@XZ
		push	ECX
		xor	EAX,EAX
		pop	ECX
		ret
?isPackage@Dsymbol@@UAEPAUPackage@@XZ	ends
?isModule@Dsymbol@@UAEPAUModule@@XZ	comdat
	assume	CS:?isModule@Dsymbol@@UAEPAUModule@@XZ
		push	ECX
		xor	EAX,EAX
		pop	ECX
		ret
?isModule@Dsymbol@@UAEPAUModule@@XZ	ends
?isEnumMember@Dsymbol@@UAEPAUEnumMember@@XZ	comdat
	assume	CS:?isEnumMember@Dsymbol@@UAEPAUEnumMember@@XZ
		push	ECX
		xor	EAX,EAX
		pop	ECX
		ret
?isEnumMember@Dsymbol@@UAEPAUEnumMember@@XZ	ends
?isTemplateDeclaration@Dsymbol@@UAEPAUTemplateDeclaration@@XZ	comdat
	assume	CS:?isTemplateDeclaration@Dsymbol@@UAEPAUTemplateDeclaration@@XZ
		push	ECX
		xor	EAX,EAX
		pop	ECX
		ret
?isTemplateDeclaration@Dsymbol@@UAEPAUTemplateDeclaration@@XZ	ends
?isTemplateInstance@Dsymbol@@UAEPAUTemplateInstance@@XZ	comdat
	assume	CS:?isTemplateInstance@Dsymbol@@UAEPAUTemplateInstance@@XZ
		push	ECX
		xor	EAX,EAX
		pop	ECX
		ret
?isTemplateInstance@Dsymbol@@UAEPAUTemplateInstance@@XZ	ends
?isTemplateMixin@Dsymbol@@UAEPAUTemplateMixin@@XZ	comdat
	assume	CS:?isTemplateMixin@Dsymbol@@UAEPAUTemplateMixin@@XZ
		push	ECX
		xor	EAX,EAX
		pop	ECX
		ret
?isTemplateMixin@Dsymbol@@UAEPAUTemplateMixin@@XZ	ends
?isDeclaration@Dsymbol@@UAEPAUDeclaration@@XZ	comdat
	assume	CS:?isDeclaration@Dsymbol@@UAEPAUDeclaration@@XZ
		push	ECX
		xor	EAX,EAX
		pop	ECX
		ret
?isDeclaration@Dsymbol@@UAEPAUDeclaration@@XZ	ends
?isThisDeclaration@Dsymbol@@UAEPAUThisDeclaration@@XZ	comdat
	assume	CS:?isThisDeclaration@Dsymbol@@UAEPAUThisDeclaration@@XZ
		push	ECX
		xor	EAX,EAX
		pop	ECX
		ret
?isThisDeclaration@Dsymbol@@UAEPAUThisDeclaration@@XZ	ends
?isTupleDeclaration@Dsymbol@@UAEPAUTupleDeclaration@@XZ	comdat
	assume	CS:?isTupleDeclaration@Dsymbol@@UAEPAUTupleDeclaration@@XZ
		push	ECX
		xor	EAX,EAX
		pop	ECX
		ret
?isTupleDeclaration@Dsymbol@@UAEPAUTupleDeclaration@@XZ	ends
?isTypedefDeclaration@Dsymbol@@UAEPAUTypedefDeclaration@@XZ	comdat
	assume	CS:?isTypedefDeclaration@Dsymbol@@UAEPAUTypedefDeclaration@@XZ
		push	ECX
		xor	EAX,EAX
		pop	ECX
		ret
?isTypedefDeclaration@Dsymbol@@UAEPAUTypedefDeclaration@@XZ	ends
?isAliasDeclaration@Dsymbol@@UAEPAUAliasDeclaration@@XZ	comdat
	assume	CS:?isAliasDeclaration@Dsymbol@@UAEPAUAliasDeclaration@@XZ
		push	ECX
		xor	EAX,EAX
		pop	ECX
		ret
?isAliasDeclaration@Dsymbol@@UAEPAUAliasDeclaration@@XZ	ends
?isAggregateDeclaration@Dsymbol@@UAEPAUAggregateDeclaration@@XZ	comdat
	assume	CS:?isAggregateDeclaration@Dsymbol@@UAEPAUAggregateDeclaration@@XZ
		push	ECX
		xor	EAX,EAX
		pop	ECX
		ret
?isAggregateDeclaration@Dsymbol@@UAEPAUAggregateDeclaration@@XZ	ends
?isFuncDeclaration@Dsymbol@@UAEPAUFuncDeclaration@@XZ	comdat
	assume	CS:?isFuncDeclaration@Dsymbol@@UAEPAUFuncDeclaration@@XZ
		push	ECX
		xor	EAX,EAX
		pop	ECX
		ret
?isFuncDeclaration@Dsymbol@@UAEPAUFuncDeclaration@@XZ	ends
?isFuncAliasDeclaration@Dsymbol@@UAEPAUFuncAliasDeclaration@@XZ	comdat
	assume	CS:?isFuncAliasDeclaration@Dsymbol@@UAEPAUFuncAliasDeclaration@@XZ
		push	ECX
		xor	EAX,EAX
		pop	ECX
		ret
?isFuncAliasDeclaration@Dsymbol@@UAEPAUFuncAliasDeclaration@@XZ	ends
?isFuncLiteralDeclaration@Dsymbol@@UAEPAUFuncLiteralDeclaration@@XZ	comdat
	assume	CS:?isFuncLiteralDeclaration@Dsymbol@@UAEPAUFuncLiteralDeclaration@@XZ
		push	ECX
		xor	EAX,EAX
		pop	ECX
		ret
?isFuncLiteralDeclaration@Dsymbol@@UAEPAUFuncLiteralDeclaration@@XZ	ends
?isCtorDeclaration@Dsymbol@@UAEPAUCtorDeclaration@@XZ	comdat
	assume	CS:?isCtorDeclaration@Dsymbol@@UAEPAUCtorDeclaration@@XZ
		push	ECX
		xor	EAX,EAX
		pop	ECX
		ret
?isCtorDeclaration@Dsymbol@@UAEPAUCtorDeclaration@@XZ	ends
?isPostBlitDeclaration@Dsymbol@@UAEPAUPostBlitDeclaration@@XZ	comdat
	assume	CS:?isPostBlitDeclaration@Dsymbol@@UAEPAUPostBlitDeclaration@@XZ
		push	ECX
		xor	EAX,EAX
		pop	ECX
		ret
?isPostBlitDeclaration@Dsymbol@@UAEPAUPostBlitDeclaration@@XZ	ends
?isDtorDeclaration@Dsymbol@@UAEPAUDtorDeclaration@@XZ	comdat
	assume	CS:?isDtorDeclaration@Dsymbol@@UAEPAUDtorDeclaration@@XZ
		push	ECX
		xor	EAX,EAX
		pop	ECX
		ret
?isDtorDeclaration@Dsymbol@@UAEPAUDtorDeclaration@@XZ	ends
?isStaticCtorDeclaration@Dsymbol@@UAEPAUStaticCtorDeclaration@@XZ	comdat
	assume	CS:?isStaticCtorDeclaration@Dsymbol@@UAEPAUStaticCtorDeclaration@@XZ
		push	ECX
		xor	EAX,EAX
		pop	ECX
		ret
?isStaticCtorDeclaration@Dsymbol@@UAEPAUStaticCtorDeclaration@@XZ	ends
?isStaticDtorDeclaration@Dsymbol@@UAEPAUStaticDtorDeclaration@@XZ	comdat
	assume	CS:?isStaticDtorDeclaration@Dsymbol@@UAEPAUStaticDtorDeclaration@@XZ
		push	ECX
		xor	EAX,EAX
		pop	ECX
		ret
?isStaticDtorDeclaration@Dsymbol@@UAEPAUStaticDtorDeclaration@@XZ	ends
?isInvariantDeclaration@Dsymbol@@UAEPAUInvariantDeclaration@@XZ	comdat
	assume	CS:?isInvariantDeclaration@Dsymbol@@UAEPAUInvariantDeclaration@@XZ
		push	ECX
		xor	EAX,EAX
		pop	ECX
		ret
?isInvariantDeclaration@Dsymbol@@UAEPAUInvariantDeclaration@@XZ	ends
?isUnitTestDeclaration@Dsymbol@@UAEPAUUnitTestDeclaration@@XZ	comdat
	assume	CS:?isUnitTestDeclaration@Dsymbol@@UAEPAUUnitTestDeclaration@@XZ
		push	ECX
		xor	EAX,EAX
		pop	ECX
		ret
?isUnitTestDeclaration@Dsymbol@@UAEPAUUnitTestDeclaration@@XZ	ends
?isNewDeclaration@Dsymbol@@UAEPAUNewDeclaration@@XZ	comdat
	assume	CS:?isNewDeclaration@Dsymbol@@UAEPAUNewDeclaration@@XZ
		push	ECX
		xor	EAX,EAX
		pop	ECX
		ret
?isNewDeclaration@Dsymbol@@UAEPAUNewDeclaration@@XZ	ends
?isVarDeclaration@Dsymbol@@UAEPAUVarDeclaration@@XZ	comdat
	assume	CS:?isVarDeclaration@Dsymbol@@UAEPAUVarDeclaration@@XZ
		push	ECX
		xor	EAX,EAX
		pop	ECX
		ret
?isVarDeclaration@Dsymbol@@UAEPAUVarDeclaration@@XZ	ends
?isClassDeclaration@Dsymbol@@UAEPAUClassDeclaration@@XZ	comdat
	assume	CS:?isClassDeclaration@Dsymbol@@UAEPAUClassDeclaration@@XZ
		push	ECX
		xor	EAX,EAX
		pop	ECX
		ret
?isClassDeclaration@Dsymbol@@UAEPAUClassDeclaration@@XZ	ends
?isStructDeclaration@Dsymbol@@UAEPAUStructDeclaration@@XZ	comdat
	assume	CS:?isStructDeclaration@Dsymbol@@UAEPAUStructDeclaration@@XZ
		push	ECX
		xor	EAX,EAX
		pop	ECX
		ret
?isStructDeclaration@Dsymbol@@UAEPAUStructDeclaration@@XZ	ends
?isUnionDeclaration@Dsymbol@@UAEPAUUnionDeclaration@@XZ	comdat
	assume	CS:?isUnionDeclaration@Dsymbol@@UAEPAUUnionDeclaration@@XZ
		push	ECX
		xor	EAX,EAX
		pop	ECX
		ret
?isUnionDeclaration@Dsymbol@@UAEPAUUnionDeclaration@@XZ	ends
?isInterfaceDeclaration@Dsymbol@@UAEPAUInterfaceDeclaration@@XZ	comdat
	assume	CS:?isInterfaceDeclaration@Dsymbol@@UAEPAUInterfaceDeclaration@@XZ
		push	ECX
		xor	EAX,EAX
		pop	ECX
		ret
?isInterfaceDeclaration@Dsymbol@@UAEPAUInterfaceDeclaration@@XZ	ends
?isScopeDsymbol@Dsymbol@@UAEPAUScopeDsymbol@@XZ	comdat
	assume	CS:?isScopeDsymbol@Dsymbol@@UAEPAUScopeDsymbol@@XZ
		push	ECX
		xor	EAX,EAX
		pop	ECX
		ret
?isScopeDsymbol@Dsymbol@@UAEPAUScopeDsymbol@@XZ	ends
?isWithScopeSymbol@Dsymbol@@UAEPAUWithScopeSymbol@@XZ	comdat
	assume	CS:?isWithScopeSymbol@Dsymbol@@UAEPAUWithScopeSymbol@@XZ
		push	ECX
		xor	EAX,EAX
		pop	ECX
		ret
?isWithScopeSymbol@Dsymbol@@UAEPAUWithScopeSymbol@@XZ	ends
?isArrayScopeSymbol@Dsymbol@@UAEPAUArrayScopeSymbol@@XZ	comdat
	assume	CS:?isArrayScopeSymbol@Dsymbol@@UAEPAUArrayScopeSymbol@@XZ
		push	ECX
		xor	EAX,EAX
		pop	ECX
		ret
?isArrayScopeSymbol@Dsymbol@@UAEPAUArrayScopeSymbol@@XZ	ends
?isImport@Dsymbol@@UAEPAUImport@@XZ	comdat
	assume	CS:?isImport@Dsymbol@@UAEPAUImport@@XZ
		push	ECX
		xor	EAX,EAX
		pop	ECX
		ret
?isImport@Dsymbol@@UAEPAUImport@@XZ	ends
?isEnumDeclaration@Dsymbol@@UAEPAUEnumDeclaration@@XZ	comdat
	assume	CS:?isEnumDeclaration@Dsymbol@@UAEPAUEnumDeclaration@@XZ
		push	ECX
		xor	EAX,EAX
		pop	ECX
		ret
?isEnumDeclaration@Dsymbol@@UAEPAUEnumDeclaration@@XZ	ends
?isDeleteDeclaration@Dsymbol@@UAEPAUDeleteDeclaration@@XZ	comdat
	assume	CS:?isDeleteDeclaration@Dsymbol@@UAEPAUDeleteDeclaration@@XZ
		push	ECX
		xor	EAX,EAX
		pop	ECX
		ret
?isDeleteDeclaration@Dsymbol@@UAEPAUDeleteDeclaration@@XZ	ends
?isSymbolDeclaration@Dsymbol@@UAEPAUSymbolDeclaration@@XZ	comdat
	assume	CS:?isSymbolDeclaration@Dsymbol@@UAEPAUSymbolDeclaration@@XZ
		push	ECX
		xor	EAX,EAX
		pop	ECX
		ret
?isSymbolDeclaration@Dsymbol@@UAEPAUSymbolDeclaration@@XZ	ends
?isAttribDeclaration@Dsymbol@@UAEPAUAttribDeclaration@@XZ	comdat
	assume	CS:?isAttribDeclaration@Dsymbol@@UAEPAUAttribDeclaration@@XZ
		push	ECX
		xor	EAX,EAX
		pop	ECX
		ret
?isAttribDeclaration@Dsymbol@@UAEPAUAttribDeclaration@@XZ	ends
?isOverloadSet@Dsymbol@@UAEPAUOverloadSet@@XZ	comdat
	assume	CS:?isOverloadSet@Dsymbol@@UAEPAUOverloadSet@@XZ
		push	ECX
		xor	EAX,EAX
		pop	ECX
		ret
?isOverloadSet@Dsymbol@@UAEPAUOverloadSet@@XZ	ends
??_GDsymbol@@UAEPAXI@Z	comdat
	assume	CS:??_GDsymbol@@UAEPAXI@Z
L0:		push	EBX
		mov	EBX,ECX
		test	ECX,ECX
		je	L26
		mov	dword ptr [EBX],offset FLAT:??_7Dsymbol@@6B@
		mov	dword ptr [EBX],offset FLAT:??_7Object@@6B@
		test	dword ptr 8[ESP],1
		je	L26
		push	EBX
		call	near ptr ??3@YAXPAX@Z
		add	ESP,4
L26:		mov	EAX,EBX
		pop	EBX
		ret	4
??_GDsymbol@@UAEPAXI@Z	ends
??_GObject@@UAEPAXI@Z	comdat
	assume	CS:??_GObject@@UAEPAXI@Z
L0:		push	EBX
		mov	EBX,ECX
		test	ECX,ECX
		je	L20
		mov	dword ptr [EBX],offset FLAT:??_7Object@@6B@
		test	dword ptr 8[ESP],1
		je	L20
		push	EBX
		call	near ptr ??3@YAXPAX@Z
		add	ESP,4
L20:		mov	EAX,EBX
		pop	EBX
		ret	4
??_GObject@@UAEPAXI@Z	ends
	end
