_TEXT	segment dword use32 public 'CODE'	;size is 3241
_TEXT	ends
_DATA	segment dword use32 public 'DATA'	;size is 234
_DATA	ends
CONST	segment dword use32 public 'CONST'	;size is 0
CONST	ends
_BSS	segment dword use32 public 'BSS'	;size is 0
_BSS	ends
FLAT	group	
	extrn	??_7FuncDeclarations@@6B@
	extrn	??_7AggregateDeclaration@@6B@
	extrn	??_GFuncDeclarations@@UAEPAXI@Z
	extrn	??_7ScopeDsymbol@@6B@
	extrn	??_7Dsymbol@@6B@
	extrn	??_7Object@@6B@
	extrn	??_GAggregateDeclaration@@UAEPAXI@Z
	extrn	?dyncast@Dsymbol@@UAEHXZ
	extrn	?addLocalClass@Dsymbol@@UAEXPAUClassDeclarations@@@Z
	extrn	?checkCtorConstInit@Dsymbol@@UAEXXZ
	extrn	?isPackage@Dsymbol@@UAEPAUPackage@@XZ
	extrn	?isModule@Dsymbol@@UAEPAUModule@@XZ
	extrn	?isEnumMember@Dsymbol@@UAEPAUEnumMember@@XZ
	extrn	?isTemplateDeclaration@Dsymbol@@UAEPAUTemplateDeclaration@@XZ
	extrn	?isTemplateInstance@Dsymbol@@UAEPAUTemplateInstance@@XZ
	extrn	?isTemplateMixin@Dsymbol@@UAEPAUTemplateMixin@@XZ
	extrn	?isDeclaration@Dsymbol@@UAEPAUDeclaration@@XZ
	extrn	?isThisDeclaration@Dsymbol@@UAEPAUThisDeclaration@@XZ
	extrn	?isTupleDeclaration@Dsymbol@@UAEPAUTupleDeclaration@@XZ
	extrn	?isTypedefDeclaration@Dsymbol@@UAEPAUTypedefDeclaration@@XZ
	extrn	?isAliasDeclaration@Dsymbol@@UAEPAUAliasDeclaration@@XZ
	extrn	?isAggregateDeclaration@AggregateDeclaration@@UAEPAU1@XZ
	extrn	?isFuncDeclaration@Dsymbol@@UAEPAUFuncDeclaration@@XZ
	extrn	?isFuncAliasDeclaration@Dsymbol@@UAEPAUFuncAliasDeclaration@@XZ
	extrn	?isFuncLiteralDeclaration@Dsymbol@@UAEPAUFuncLiteralDeclaration@@XZ
	extrn	?isCtorDeclaration@Dsymbol@@UAEPAUCtorDeclaration@@XZ
	extrn	?isPostBlitDeclaration@Dsymbol@@UAEPAUPostBlitDeclaration@@XZ
	extrn	?isDtorDeclaration@Dsymbol@@UAEPAUDtorDeclaration@@XZ
	extrn	?isStaticCtorDeclaration@Dsymbol@@UAEPAUStaticCtorDeclaration@@XZ
	extrn	?isStaticDtorDeclaration@Dsymbol@@UAEPAUStaticDtorDeclaration@@XZ
	extrn	?isInvariantDeclaration@Dsymbol@@UAEPAUInvariantDeclaration@@XZ
	extrn	?isUnitTestDeclaration@Dsymbol@@UAEPAUUnitTestDeclaration@@XZ
	extrn	?isNewDeclaration@Dsymbol@@UAEPAUNewDeclaration@@XZ
	extrn	?isVarDeclaration@Dsymbol@@UAEPAUVarDeclaration@@XZ
	extrn	?isClassDeclaration@Dsymbol@@UAEPAUClassDeclaration@@XZ
	extrn	?isStructDeclaration@Dsymbol@@UAEPAUStructDeclaration@@XZ
	extrn	?isUnionDeclaration@Dsymbol@@UAEPAUUnionDeclaration@@XZ
	extrn	?isInterfaceDeclaration@Dsymbol@@UAEPAUInterfaceDeclaration@@XZ
	extrn	?isScopeDsymbol@ScopeDsymbol@@UAEPAU1@XZ
	extrn	?isWithScopeSymbol@Dsymbol@@UAEPAUWithScopeSymbol@@XZ
	extrn	?isArrayScopeSymbol@Dsymbol@@UAEPAUArrayScopeSymbol@@XZ
	extrn	?isImport@Dsymbol@@UAEPAUImport@@XZ
	extrn	?isEnumDeclaration@Dsymbol@@UAEPAUEnumDeclaration@@XZ
	extrn	?isDeleteDeclaration@Dsymbol@@UAEPAUDeleteDeclaration@@XZ
	extrn	?isSymbolDeclaration@Dsymbol@@UAEPAUSymbolDeclaration@@XZ
	extrn	?isAttribDeclaration@Dsymbol@@UAEPAUAttribDeclaration@@XZ
	extrn	?isOverloadSet@Dsymbol@@UAEPAUOverloadSet@@XZ
	extrn	??_GScopeDsymbol@@UAEPAXI@Z
	extrn	?isAggregateDeclaration@Dsymbol@@UAEPAUAggregateDeclaration@@XZ
	extrn	??_GDsymbol@@UAEPAXI@Z
	extrn	?isScopeDsymbol@Dsymbol@@UAEPAUScopeDsymbol@@XZ
	extrn	??_GObject@@UAEPAXI@Z

	public	??0AggregateDeclaration@@QAE@ULoc@@PAUIdentifier@@@Z
	public	?prot@AggregateDeclaration@@UAE?AW4PROT@@XZ
	public	?semantic2@AggregateDeclaration@@UAEXPAUScope@@@Z
	public	?semantic3@AggregateDeclaration@@UAEXPAUScope@@@Z
	public	?inlineScan@AggregateDeclaration@@UAEXXZ
	public	?size@AggregateDeclaration@@UAEIULoc@@@Z
	public	?getType@AggregateDeclaration@@UAEPAUType@@XZ
	public	?isDeprecated@AggregateDeclaration@@UAEHXZ
	public	?alignmember@AggregateDeclaration@@SAXIIPAI@Z
	extrn	??_7StructDeclaration@@6B@
	extrn	??_GStructDeclaration@@UAEPAXI@Z
	extrn	?isStructDeclaration@StructDeclaration@@UAEPAU1@XZ

	public	?addField@AggregateDeclaration@@QAEXPAUScope@@PAUVarDeclaration@@@Z
	public	??0StructDeclaration@@QAE@ULoc@@PAUIdentifier@@@Z
	extrn	??_7Parameters@@6B@
	extrn	??_7Expressions@@6B@
	extrn	??_GParameters@@UAEPAXI@Z
	extrn	??_GExpressions@@UAEPAXI@Z

	public	?syntaxCopy@StructDeclaration@@UAEPAUDsymbol@@PAU2@@Z
	public	?semantic@StructDeclaration@@UAEXPAUScope@@@Z
	public	?search@StructDeclaration@@UAEPAUDsymbol@@ULoc@@PAUIdentifier@@H@Z
	public	?toCBuffer@StructDeclaration@@UAEXPAUOutBuffer@@PAUHdrGenState@@@Z
	extrn	??_7UnionDeclaration@@6B@
	extrn	??_GUnionDeclaration@@UAEPAXI@Z
	extrn	?isUnionDeclaration@UnionDeclaration@@UAEPAU1@XZ

	public	?kind@StructDeclaration@@UAEPBDXZ
	public	??0UnionDeclaration@@QAE@ULoc@@PAUIdentifier@@@Z
	public	?syntaxCopy@UnionDeclaration@@UAEPAUDsymbol@@PAU2@@Z
includelib SNN.lib
	extrn	??2@YAPAXI@Z
	extrn	??3@YAXPAX@Z
	extrn	??1Array@@UAE@XZ
	extrn	?getAccess@StructDeclaration@@UAE?AW4PROT@@PAUDsymbol@@@Z
	extrn	?symtabInsert@ScopeDsymbol@@UAEPAUDsymbol@@PAU2@@Z
	extrn	?cvMember@Dsymbol@@UAEHPAE@Z
	extrn	?toObjFile@StructDeclaration@@UAEXH@Z
	extrn	?toSymbol@Dsymbol@@UAEPAUSymbol@@XZ
	extrn	?emitComment@AggregateDeclaration@@UAEXPAUScope@@@Z
	extrn	?addComment@Dsymbol@@UAEXPAE@Z
	extrn	?hasPointers@Dsymbol@@UAEHXZ
	extrn	?oneMember@Dsymbol@@UAEHPAPAU1@@Z
	extrn	?needThis@Dsymbol@@UAEHXZ
	extrn	?mangle@StructDeclaration@@UAEPADXZ
	extrn	?isMember@Dsymbol@@UAEPAUAggregateDeclaration@@XZ
	extrn	?isLabel@Dsymbol@@UAEPAULabelDsymbol@@XZ
	extrn	?isImportedSymbol@Dsymbol@@UAEHXZ
	extrn	?isExport@Dsymbol@@UAEHXZ
	extrn	?isClassMember@Dsymbol@@UAEPAUClassDeclaration@@XZ
	extrn	?isThis@Dsymbol@@UAEPAUAggregateDeclaration@@XZ
	extrn	?defineRef@ScopeDsymbol@@UAEXPAUDsymbol@@@Z
	extrn	?isforwardRef@ScopeDsymbol@@UAEHXZ
	extrn	?toJsonBuffer@AggregateDeclaration@@UAEXPAUOutBuffer@@@Z
	extrn	?toDocBuffer@StructDeclaration@@UAEXPAUOutBuffer@@@Z
	extrn	?toHBuffer@Dsymbol@@UAEXPAUOutBuffer@@PAUHdrGenState@@@Z
	extrn	?overloadInsert@Dsymbol@@UAEHPAU1@@Z
	extrn	?semantic0@Dsymbol@@UAEXPAUScope@@@Z
	extrn	?importAll@Dsymbol@@UAEXPAUScope@@@Z
	extrn	?setScope@Dsymbol@@UAEXPAUScope@@@Z
	extrn	?addMember@Dsymbol@@UAEHPAUScope@@PAUScopeDsymbol@@H@Z
	extrn	?toAlias@Dsymbol@@UAEPAU1@XZ
	extrn	?toPrettyChars@Dsymbol@@UAEPBDXZ
	extrn	?toBuffer@Object@@UAEXPAUOutBuffer@@@Z
	extrn	?toDchars@Object@@UAEPADXZ
	extrn	?toChars@Dsymbol@@UAEPADXZ
	extrn	?print@Object@@UAEXXZ
	extrn	?compare@Object@@UAEHPAU1@@Z
	extrn	?hashCode@Object@@UAEIXZ
	extrn	?equals@Dsymbol@@UAEHPAUObject@@@Z
	extrn	?writenl@OutBuffer@@QAEXXZ
	extrn	?writeByte@OutBuffer@@QAEXI@Z
	extrn	?writestring@OutBuffer@@QAEXPBD@Z
	extrn	?isAnonymous@Dsymbol@@QAEHXZ
	extrn	?printf@OutBuffer@@QAAXPBDZZ
	extrn	?search@ScopeDsymbol@@UAEPAUDsymbol@@ULoc@@PAUIdentifier@@H@Z
	extrn	?error@Dsymbol@@QAAXPBDZZ
	extrn	?classDelete@Id@@2PAUIdentifier@@A
	extrn	?classNew@Id@@2PAUIdentifier@@A
	extrn	?classInvariant@Id@@2PAUIdentifier@@A
	extrn	?dprogress@Module@@2IA
	extrn	?addDeferredSemantic@Module@@QAEXPAUDsymbol@@@Z
	extrn	?setNoFree@Scope@@QAEXXZ
	extrn	??2Scope@@SAPAXI@Z
	extrn	?setDim@Array@@QAEXI@Z
	extrn	?pop@Scope@@QAEPAU1@XZ
	extrn	?cmp@Id@@2PAUIdentifier@@A
	extrn	?push@Array@@QAEXPAX@Z
	extrn	__assert
	extrn	??0ReturnStatement@@QAE@ULoc@@PAUExpression@@@Z
	extrn	??0CallExp@@QAE@ULoc@@PAUExpression@@PAUExpressions@@@Z
	extrn	??0IdentifierExp@@QAE@ULoc@@PAUIdentifier@@@Z
	extrn	??0Array@@QAE@XZ
	extrn	??0PtrExp@@QAE@ULoc@@PAUExpression@@@Z
	extrn	?p@Id@@2PAUIdentifier@@A
	extrn	??0FuncDeclaration@@QAE@ULoc@@0PAUIdentifier@@_KPAUType@@@Z
	extrn	?overloadExactMatch@FuncDeclaration@@QAEPAU1@PAUType@@@Z
	extrn	?search_function@@YAPAUDsymbol@@PAUAggregateDeclaration@@PAUIdentifier@@@Z
	extrn	?eq@Id@@2PAUIdentifier@@A
	extrn	??0TypeFunction@@QAE@PAUParameters@@PAUType@@HW4LINK@@@Z
	extrn	?basic@Type@@2QAPAU1@A
	extrn	??0Parameter@@QAE@_KPAUType@@PAUIdentifier@@PAUExpression@@@Z
	extrn	?push@Scope@@QAEPAU1@PAUScopeDsymbol@@@Z
	extrn	?pointerTo@Type@@QAEPAU1@XZ
	extrn	??0DsymbolTable@@QAE@XZ
	extrn	?dyncast@Object@@UAEHXZ
	extrn	?toChars@Array@@UAEPADXZ
	extrn	?equals@Object@@UAEHPAU1@@Z
	extrn	?syntaxCopy@ScopeDsymbol@@UAEPAUDsymbol@@PAU2@@Z
	extrn	??0TypeStruct@@QAE@PAUStructDeclaration@@@Z
	extrn	?error@Dsymbol@@QAAXULoc@@PBDZZ
	extrn	?toChars@Object@@UAEPADXZ
	extrn	?toObjFile@Dsymbol@@UAEXH@Z
	extrn	?emitComment@Dsymbol@@UAEXPAUScope@@@Z
	extrn	?syntaxCopy@Dsymbol@@UAEPAU1@PAU1@@Z
	extrn	?prot@Dsymbol@@UAE?AW4PROT@@XZ
	extrn	?mangle@Dsymbol@@UAEPADXZ
	extrn	?getType@Dsymbol@@UAEPAUType@@XZ
	extrn	?isDeprecated@Dsymbol@@UAEHXZ
	extrn	?defineRef@Dsymbol@@UAEXPAU1@@Z
	extrn	?isforwardRef@Dsymbol@@UAEHXZ
	extrn	?size@Dsymbol@@UAEIULoc@@@Z
	extrn	?toJsonBuffer@Dsymbol@@UAEXPAUOutBuffer@@@Z
	extrn	?toDocBuffer@Dsymbol@@UAEXPAUOutBuffer@@@Z
	extrn	?toCBuffer@Dsymbol@@UAEXPAUOutBuffer@@PAUHdrGenState@@@Z
	extrn	?search@Dsymbol@@UAEPAU1@ULoc@@PAUIdentifier@@H@Z
	extrn	?inlineScan@Dsymbol@@UAEXXZ
	extrn	?semantic3@Dsymbol@@UAEXPAUScope@@@Z
	extrn	?semantic2@Dsymbol@@UAEXPAUScope@@@Z
	extrn	?semantic@Dsymbol@@UAEXPAUScope@@@Z
	extrn	?kind@Dsymbol@@UAEPBDXZ
	extrn	?kind@ScopeDsymbol@@UAEPBDXZ
	extrn	??0ScopeDsymbol@@QAE@PAUIdentifier@@@Z
	extrn	?getAccess@AggregateDeclaration@@UAE?AW4PROT@@PAUDsymbol@@@Z
	extrn	?toDocBuffer@AggregateDeclaration@@UAEXPAUOutBuffer@@@Z

	public	?kind@UnionDeclaration@@UAEPBDXZ
??_7FuncDeclarations@@6B@	COMDAT flags=x0 attr=x10 align=x0 
??_7AggregateDeclaration@@6B@	COMDAT flags=x0 attr=x10 align=x0 
??_GFuncDeclarations@@UAEPAXI@Z	COMDAT flags=x0 attr=x10 align=x0 
??_7ScopeDsymbol@@6B@	COMDAT flags=x0 attr=x10 align=x0 
??_7Dsymbol@@6B@	COMDAT flags=x0 attr=x10 align=x0 
??_7Object@@6B@	COMDAT flags=x0 attr=x10 align=x0 
??_GAggregateDeclaration@@UAEPAXI@Z	COMDAT flags=x0 attr=x10 align=x0 
?dyncast@Dsymbol@@UAEHXZ	COMDAT flags=x0 attr=x10 align=x0 
?addLocalClass@Dsymbol@@UAEXPAUClassDeclarations@@@Z	COMDAT flags=x0 attr=x10 align=x0 
?checkCtorConstInit@Dsymbol@@UAEXXZ	COMDAT flags=x0 attr=x10 align=x0 
?isPackage@Dsymbol@@UAEPAUPackage@@XZ	COMDAT flags=x0 attr=x10 align=x0 
?isModule@Dsymbol@@UAEPAUModule@@XZ	COMDAT flags=x0 attr=x10 align=x0 
?isEnumMember@Dsymbol@@UAEPAUEnumMember@@XZ	COMDAT flags=x0 attr=x10 align=x0 
?isTemplateDeclaration@Dsymbol@@UAEPAUTemplateDeclaration@@XZ	COMDAT flags=x0 attr=x10 align=x0 
?isTemplateInstance@Dsymbol@@UAEPAUTemplateInstance@@XZ	COMDAT flags=x0 attr=x10 align=x0 
?isTemplateMixin@Dsymbol@@UAEPAUTemplateMixin@@XZ	COMDAT flags=x0 attr=x10 align=x0 
?isDeclaration@Dsymbol@@UAEPAUDeclaration@@XZ	COMDAT flags=x0 attr=x10 align=x0 
?isThisDeclaration@Dsymbol@@UAEPAUThisDeclaration@@XZ	COMDAT flags=x0 attr=x10 align=x0 
?isTupleDeclaration@Dsymbol@@UAEPAUTupleDeclaration@@XZ	COMDAT flags=x0 attr=x10 align=x0 
?isTypedefDeclaration@Dsymbol@@UAEPAUTypedefDeclaration@@XZ	COMDAT flags=x0 attr=x10 align=x0 
?isAliasDeclaration@Dsymbol@@UAEPAUAliasDeclaration@@XZ	COMDAT flags=x0 attr=x10 align=x0 
?isAggregateDeclaration@AggregateDeclaration@@UAEPAU1@XZ	COMDAT flags=x0 attr=x10 align=x0 
?isFuncDeclaration@Dsymbol@@UAEPAUFuncDeclaration@@XZ	COMDAT flags=x0 attr=x10 align=x0 
?isFuncAliasDeclaration@Dsymbol@@UAEPAUFuncAliasDeclaration@@XZ	COMDAT flags=x0 attr=x10 align=x0 
?isFuncLiteralDeclaration@Dsymbol@@UAEPAUFuncLiteralDeclaration@@XZ	COMDAT flags=x0 attr=x10 align=x0 
?isCtorDeclaration@Dsymbol@@UAEPAUCtorDeclaration@@XZ	COMDAT flags=x0 attr=x10 align=x0 
?isPostBlitDeclaration@Dsymbol@@UAEPAUPostBlitDeclaration@@XZ	COMDAT flags=x0 attr=x10 align=x0 
?isDtorDeclaration@Dsymbol@@UAEPAUDtorDeclaration@@XZ	COMDAT flags=x0 attr=x10 align=x0 
?isStaticCtorDeclaration@Dsymbol@@UAEPAUStaticCtorDeclaration@@XZ	COMDAT flags=x0 attr=x10 align=x0 
?isStaticDtorDeclaration@Dsymbol@@UAEPAUStaticDtorDeclaration@@XZ	COMDAT flags=x0 attr=x10 align=x0 
?isInvariantDeclaration@Dsymbol@@UAEPAUInvariantDeclaration@@XZ	COMDAT flags=x0 attr=x10 align=x0 
?isUnitTestDeclaration@Dsymbol@@UAEPAUUnitTestDeclaration@@XZ	COMDAT flags=x0 attr=x10 align=x0 
?isNewDeclaration@Dsymbol@@UAEPAUNewDeclaration@@XZ	COMDAT flags=x0 attr=x10 align=x0 
?isVarDeclaration@Dsymbol@@UAEPAUVarDeclaration@@XZ	COMDAT flags=x0 attr=x10 align=x0 
?isClassDeclaration@Dsymbol@@UAEPAUClassDeclaration@@XZ	COMDAT flags=x0 attr=x10 align=x0 
?isStructDeclaration@Dsymbol@@UAEPAUStructDeclaration@@XZ	COMDAT flags=x0 attr=x10 align=x0 
?isUnionDeclaration@Dsymbol@@UAEPAUUnionDeclaration@@XZ	COMDAT flags=x0 attr=x10 align=x0 
?isInterfaceDeclaration@Dsymbol@@UAEPAUInterfaceDeclaration@@XZ	COMDAT flags=x0 attr=x10 align=x0 
?isScopeDsymbol@ScopeDsymbol@@UAEPAU1@XZ	COMDAT flags=x0 attr=x10 align=x0 
?isWithScopeSymbol@Dsymbol@@UAEPAUWithScopeSymbol@@XZ	COMDAT flags=x0 attr=x10 align=x0 
?isArrayScopeSymbol@Dsymbol@@UAEPAUArrayScopeSymbol@@XZ	COMDAT flags=x0 attr=x10 align=x0 
?isImport@Dsymbol@@UAEPAUImport@@XZ	COMDAT flags=x0 attr=x10 align=x0 
?isEnumDeclaration@Dsymbol@@UAEPAUEnumDeclaration@@XZ	COMDAT flags=x0 attr=x10 align=x0 
?isDeleteDeclaration@Dsymbol@@UAEPAUDeleteDeclaration@@XZ	COMDAT flags=x0 attr=x10 align=x0 
?isSymbolDeclaration@Dsymbol@@UAEPAUSymbolDeclaration@@XZ	COMDAT flags=x0 attr=x10 align=x0 
?isAttribDeclaration@Dsymbol@@UAEPAUAttribDeclaration@@XZ	COMDAT flags=x0 attr=x10 align=x0 
?isOverloadSet@Dsymbol@@UAEPAUOverloadSet@@XZ	COMDAT flags=x0 attr=x10 align=x0 
??_GScopeDsymbol@@UAEPAXI@Z	COMDAT flags=x0 attr=x10 align=x0 
?isAggregateDeclaration@Dsymbol@@UAEPAUAggregateDeclaration@@XZ	COMDAT flags=x0 attr=x10 align=x0 
??_GDsymbol@@UAEPAXI@Z	COMDAT flags=x0 attr=x10 align=x0 
?isScopeDsymbol@Dsymbol@@UAEPAUScopeDsymbol@@XZ	COMDAT flags=x0 attr=x10 align=x0 
??_GObject@@UAEPAXI@Z	COMDAT flags=x0 attr=x10 align=x0 
??_7StructDeclaration@@6B@	COMDAT flags=x0 attr=x10 align=x0 
??_GStructDeclaration@@UAEPAXI@Z	COMDAT flags=x0 attr=x10 align=x0 
?isStructDeclaration@StructDeclaration@@UAEPAU1@XZ	COMDAT flags=x0 attr=x10 align=x0 
??_7Parameters@@6B@	COMDAT flags=x0 attr=x10 align=x0 
??_7Expressions@@6B@	COMDAT flags=x0 attr=x10 align=x0 
??_GParameters@@UAEPAXI@Z	COMDAT flags=x0 attr=x10 align=x0 
??_GExpressions@@UAEPAXI@Z	COMDAT flags=x0 attr=x10 align=x0 
??_7UnionDeclaration@@6B@	COMDAT flags=x0 attr=x10 align=x0 
??_GUnionDeclaration@@UAEPAXI@Z	COMDAT flags=x0 attr=x10 align=x0 
?isUnionDeclaration@UnionDeclaration@@UAEPAU1@XZ	COMDAT flags=x0 attr=x10 align=x0 

_TEXT	segment
	assume	CS:_TEXT
??0AggregateDeclaration@@QAE@ULoc@@PAUIdentifier@@@Z:
		push	ECX
		push	EBX
		mov	EBX,ECX
		push	ESI
		push	dword ptr 018h[ESP]
		call	near ptr ??0ScopeDsymbol@@QAE@PAUIdentifier@@@Z
		lea	ECX,060h[EBX]
		call	near ptr ??0Array@@QAE@XZ
		lea	ECX,088h[EBX]
		mov	8[ESP],ECX
		call	near ptr ??0Array@@QAE@XZ
		mov	EAX,8[ESP]
		mov	EDX,014h[ESP]
		mov	dword ptr [EAX],offset FLAT:??_7FuncDeclarations@@6B@
		mov	EAX,010h[ESP]
		xor	ESI,ESI
		mov	01Ch[EBX],EAX
		mov	EAX,EBX
		mov	dword ptr [EBX],offset FLAT:??_7AggregateDeclaration@@6B@
		mov	020h[EBX],EDX
		mov	dword ptr 040h[EBX],0
		mov	dword ptr 044h[EBX],0
		mov	dword ptr 048h[EBX],5
		mov	038h[EBX],ESI
		mov	04Ch[EBX],ESI
		mov	050h[EBX],ESI
		mov	054h[EBX],ESI
		mov	058h[EBX],ESI
		mov	05Ch[EBX],ESI
		mov	074h[EBX],ESI
		mov	078h[EBX],ESI
		mov	07Ch[EBX],ESI
		mov	080h[EBX],ESI
		mov	084h[EBX],ESI
		mov	0A0h[EBX],ESI
		mov	0A4h[EBX],ESI
		pop	ESI
		pop	EBX
		pop	ECX
		ret	0Ch
?prot@AggregateDeclaration@@UAE?AW4PROT@@XZ:
		push	ECX
		mov	EAX,048h[ECX]
		pop	ECX
		ret
		nop
		nop
		nop
		nop
		nop
?semantic2@AggregateDeclaration@@UAEXPAUScope@@@Z:
		push	ECX
		push	EBX
		push	EBP
		mov	EBP,010h[ESP]
		push	ESI
		mov	ESI,ECX
		push	EDI
		cmp	dword ptr 024h[ESI],0
		je	LCD
		cmp	dword ptr 028h[ESI],0
		je	LCD
		push	offset FLAT:_DATA
		push	ESI
		call	near ptr ?error@Dsymbol@@QAAXPBDZZ
		add	ESP,8
		pop	EDI
		pop	ESI
		pop	EBP
		pop	EBX
		pop	EAX
		ret	4
LCD:		cmp	dword ptr 028h[ESI],0
		je	L108
		push	ESI
		mov	ECX,EBP
		call	near ptr ?push@Scope@@QAEPAU1@PAUScopeDsymbol@@@Z
		mov	EDX,028h[ESI]
		xor	EBX,EBX
		cmp	4[EDX],EBX
		mov	EBP,EAX
		je	L101
LE7:		mov	ECX,028h[ESI]
		mov	EDX,8[ECX]
		mov	EDI,[EBX*4][EDX]
		push	EBP
		mov	EDX,[EDI]
		mov	ECX,EDI
		call	dword ptr 044h[EDX]
		mov	ECX,028h[ESI]
		inc	EBX
		cmp	4[ECX],EBX
		ja	LE7
L101:		mov	ECX,EBP
		call	near ptr ?pop@Scope@@QAEPAU1@XZ
L108:		pop	EDI
		pop	ESI
		pop	EBP
		pop	EBX
		pop	EAX
		ret	4
?semantic3@AggregateDeclaration@@UAEXPAUScope@@@Z:
		push	ECX
		push	EBX
		push	EBP
		mov	EBP,010h[ESP]
		push	ESI
		mov	ESI,ECX
		push	EDI
		cmp	dword ptr 028h[ESI],0
		je	L156
		push	ESI
		mov	ECX,EBP
		call	near ptr ?push@Scope@@QAEPAU1@PAUScopeDsymbol@@@Z
		mov	EDX,028h[ESI]
		xor	EBX,EBX
		cmp	4[EDX],EBX
		mov	EBP,EAX
		je	L14F
L135:		mov	ECX,028h[ESI]
		mov	EDX,8[ECX]
		mov	EDI,[EBX*4][EDX]
		push	EBP
		mov	EDX,[EDI]
		mov	ECX,EDI
		call	dword ptr 048h[EDX]
		mov	ECX,028h[ESI]
		inc	EBX
		cmp	4[ECX],EBX
		ja	L135
L14F:		mov	ECX,EBP
		call	near ptr ?pop@Scope@@QAEPAU1@XZ
L156:		pop	EDI
		pop	ESI
		pop	EBP
		pop	EBX
		pop	EAX
		ret	4
		nop
		nop
?inlineScan@AggregateDeclaration@@UAEXXZ:
		push	EBX
		mov	EAX,028h[ECX]
		test	EAX,EAX
		push	ESI
		mov	ESI,ECX
		push	EDI
		je	L18C
		xor	EBX,EBX
		cmp	4[EAX],EBX
		je	L18C
L173:		mov	ECX,028h[ESI]
		mov	EDX,8[ECX]
		mov	EDI,[EBX*4][EDX]
		mov	EDX,[EDI]
		mov	ECX,EDI
		call	dword ptr 04Ch[EDX]
		mov	ECX,028h[ESI]
		inc	EBX
		cmp	4[ECX],EBX
		ja	L173
L18C:		pop	EDI
		pop	ESI
		pop	EBX
		ret
?size@AggregateDeclaration@@UAEIULoc@@@Z:
		push	EBX
		mov	EBX,ECX
		cmp	dword ptr 028h[ECX],0
		jne	L1AF
		push	offset FLAT:_DATA[018h]
		push	dword ptr 010h[ESP]
		push	dword ptr 010h[ESP]
		push	EBX
		call	near ptr ?error@Dsymbol@@QAAXULoc@@PBDZZ
		add	ESP,010h
L1AF:		cmp	dword ptr 074h[EBX],1
		je	L1C4
		cmp	dword ptr 024h[EBX],0
		je	L1C4
		push	0
		mov	EAX,[EBX]
		mov	ECX,EBX
		call	dword ptr 040h[EAX]
L1C4:		cmp	dword ptr 074h[EBX],1
		je	L1E0
		push	offset FLAT:_DATA[028h]
		push	dword ptr 010h[ESP]
		push	dword ptr 010h[ESP]
		push	EBX
		call	near ptr ?error@Dsymbol@@QAAXULoc@@PBDZZ
		add	ESP,010h
L1E0:		mov	EAX,050h[EBX]
		pop	EBX
		ret	8
?getType@AggregateDeclaration@@UAEPAUType@@XZ:
		push	ECX
		mov	EAX,038h[ECX]
		pop	ECX
		ret
		nop
		nop
		nop
?isDeprecated@AggregateDeclaration@@UAEHXZ:
		push	ECX
		mov	EAX,078h[ECX]
		pop	ECX
		ret
?alignmember@AggregateDeclaration@@SAXIIPAI@Z:
		push	EAX
		mov	EAX,8[ESP]
		mov	ECX,0Ch[ESP]
		push	EBX
		cmp	EAX,1
		push	ESI
		jbe	L23E
		cmp	ECX,3
		jne	L21F
		push	093h
		push	offset FLAT:_DATA[04Ch]
		push	offset FLAT:_DATA[058h]
		call	near ptr __assert
L21F:		mov	EDX,ECX
		test	ECX,ECX
		je	L229
		cmp	EAX,ECX
		jae	L22B
L229:		mov	EDX,EAX
L22B:		mov	EAX,018h[ESP]
		mov	ECX,[EAX]
		lea	ESI,-1[EDX]
		lea	EBX,-1[ECX][EDX]
		not	ESI
		and	EBX,ESI
		mov	[EAX],EBX
L23E:		pop	ESI
		pop	EBX
		pop	EAX
		ret
?addField@AggregateDeclaration@@QAEXPAUScope@@PAUVarDeclaration@@@Z:
		sub	ESP,0Ch
		mov	EDX,014h[ESP]
		push	EBX
		mov	EBX,ECX
		mov	ECX,028h[EDX]
		push	ESI
		mov	EDX,[ECX]
		call	dword ptr 070h[EDX]
		mov	ESI,EAX
		cmp	dword ptr 4[EAX],8
		jne	L27C
		mov	ECX,028h[ESI]
		cmp	dword ptr 074h[ECX],1
		je	L273
		cmp	dword ptr 024h[ECX],0
		je	L273
		push	0
		mov	EDX,[ECX]
		call	dword ptr 040h[EDX]
L273:		mov	ECX,028h[ESI]
		cmp	dword ptr 074h[ECX],1
		jne	L282
L27C:		cmp	dword ptr 4[ESI],6
		jne	L291
L282:		mov	dword ptr 074h[EBX],2
		pop	ESI
		pop	EBX
		add	ESP,0Ch
		ret	8
L291:		push	dword ptr 020h[EBX]
		push	dword ptr 01Ch[EBX]
		mov	EDX,024h[ESP]
		mov	ECX,028h[EDX]
		mov	EDX,[ECX]
		call	dword ptr 028h[EDX]
		mov	ECX,01Ch[ESP]
		mov	ECX,028h[ECX]
		mov	0Ch[ESP],EAX
		mov	EDX,[ECX]
		call	dword ptr 02Ch[EDX]
		mov	ECX,018h[ESP]
		mov	ESI,EAX
		push	dword ptr 05Ch[ECX]
		mov	EDX,020h[ESP]
		mov	ECX,028h[EDX]
		mov	EDX,[ECX]
		call	dword ptr 088h[EDX]
		mov	ECX,018h[ESP]
		mov	EDX,034h[ECX]
		mov	010h[ESP],EDX
		lea	ECX,010h[ESP]
		push	ECX
		push	ESI
		push	EAX
		call	near ptr ?alignmember@AggregateDeclaration@@SAXIIPAI@Z
		mov	ECX,028h[ESP]
		mov	EDX,01Ch[ESP]
		mov	04Ch[ECX],EDX
		mov	EDX,018h[ESP]
		add	01Ch[ESP],EDX
		add	ESP,0Ch
		mov	ECX,050h[EBX]
		cmp	ECX,010h[ESP]
		jae	L308
		mov	EDX,010h[ESP]
		mov	050h[EBX],EDX
L308:		mov	EDX,[EBX]
		mov	ECX,EBX
		call	dword ptr 0130h[EDX]
		test	EAX,EAX
		jne	L321
		mov	EDX,018h[ESP]
		mov	ECX,010h[ESP]
		mov	034h[EDX],ECX
L321:		mov	ECX,018h[ESP]
		mov	EDX,05Ch[ECX]
		cmp	EDX,ESI
		jae	L32E
		mov	ESI,EDX
L32E:		cmp	054h[EBX],ESI
		jae	L336
		mov	054h[EBX],ESI
L336:		mov	ESI,01Ch[ESP]
		lea	ECX,060h[EBX]
		or	dword ptr 030h[ESI],040h
		push	ESI
		call	near ptr ?push@Array@@QAEXPAX@Z
		pop	ESI
		pop	EBX
		add	ESP,0Ch
		ret	8
??0StructDeclaration@@QAE@ULoc@@PAUIdentifier@@@Z:
		push	ECX
		push	EBX
		mov	EBX,ECX
		push	ESI
		push	dword ptr 018h[ESP]
		push	dword ptr 018h[ESP]
		push	dword ptr 018h[ESP]
		call	near ptr ??0AggregateDeclaration@@QAE@ULoc@@PAUIdentifier@@@Z
		mov	dword ptr [EBX],offset FLAT:??_7StructDeclaration@@6B@
		mov	dword ptr 0A8h[EBX],0
		push	02Ch
		call	near ptr ??2@YAPAXI@Z
		add	ESP,4
		mov	ESI,EAX
		test	EAX,EAX
		je	L392
		mov	ECX,ESI
		push	EBX
		call	near ptr ??0TypeStruct@@QAE@PAUStructDeclaration@@@Z
		mov	ESI,EAX
L392:		mov	EAX,EBX
		mov	038h[EBX],ESI
		pop	ESI
		pop	EBX
		pop	ECX
		ret	0Ch
		nop
		nop
		nop
?syntaxCopy@StructDeclaration@@UAEPAUDsymbol@@PAU2@@Z:
		push	EBX
		push	ESI
		push	EDI
		mov	EDI,ECX
		cmp	dword ptr 010h[ESP],0
		je	L3B2
		mov	EBX,010h[ESP]
		jmp short	L3D9
L3B2:		push	0B0h
		call	near ptr ??2@YAPAXI@Z
		add	ESP,4
		mov	ESI,EAX
		test	EAX,EAX
		je	L3D7
		mov	ECX,ESI
		push	dword ptr 4[EDI]
		push	dword ptr 020h[EDI]
		push	dword ptr 01Ch[EDI]
		call	near ptr ??0StructDeclaration@@QAE@ULoc@@PAUIdentifier@@@Z
		mov	ESI,EAX
L3D7:		mov	EBX,ESI
L3D9:		push	EBX
		mov	ECX,EDI
		call	near ptr ?syntaxCopy@ScopeDsymbol@@UAEPAUDsymbol@@PAU2@@Z
		mov	EAX,EBX
		pop	EDI
		pop	ESI
		pop	EBX
		ret	4
		nop
		nop
		nop
		nop
		nop
		nop
		nop
?semantic@StructDeclaration@@UAEXPAUScope@@@Z:
		sub	ESP,074h
		push	EBX
		mov	EBX,ECX
		push	EBP
		push	ESI
		push	EDI
		mov	EBP,088h[ESP]
		cmp	dword ptr 038h[EBX],0
		jne	L41A
		push	0101h
		push	offset FLAT:_DATA[04Ch]
		push	offset FLAT:_DATA[064h]
		call	near ptr __assert
L41A:		cmp	dword ptr 028h[EBX],0
		je	LB0C
		cmp	dword ptr 02Ch[EBX],0
		je	L447
		cmp	dword ptr 074h[EBX],1
		je	L436
		cmp	dword ptr 024h[EBX],0
		jne	L463
L436:		mov	dword ptr 024h[EBX],0
		pop	EDI
		pop	ESI
		pop	EBP
		pop	EBX
		add	ESP,074h
		ret	4
L447:		push	8
		call	near ptr ??2@YAPAXI@Z
		add	ESP,4
		mov	ESI,EAX
		test	EAX,EAX
		je	L460
		mov	ECX,ESI
		call	near ptr ??0DsymbolTable@@QAE@XZ
		mov	ESI,EAX
L460:		mov	02Ch[EBX],ESI
L463:		xor	EDI,EDI
		mov	EDX,024h[EBX]
		test	EDX,EDX
		je	L477
		mov	dword ptr 024h[EBX],0
		mov	EBP,EDX
		mov	EDI,EDX
L477:		mov	ECX,?dprogress@Module@@2IA
		mov	01Ch[ESP],ECX
		mov	EDX,014h[EBP]
		mov	ECX,038h[EBX]
		push	EBP
		push	dword ptr 020h[EBX]
		mov	0Ch[EBX],EDX
		mov	EDX,[ECX]
		push	dword ptr 01Ch[EBX]
		call	dword ptr 030h[EDX]
		mov	ECX,EAX
		mov	038h[EBX],EAX
		call	near ptr ?pointerTo@Type@@QAEPAU1@XZ
		mov	04Ch[EBX],EAX
		mov	EDX,05Ch[EBP]
		mov	058h[EBX],EDX
		mov	ECX,064h[EBP]
		mov	048h[EBX],ECX
		mov	EAX,070h[EBP]
		mov	EDX,074h[EBP]
		and	EAX,0400h
		xor	EDX,EDX
		or	EDX,EAX
		je	L4C7
		mov	dword ptr 078h[EBX],1
L4C7:		mov	ECX,EBX
		call	near ptr ?isAnonymous@Dsymbol@@QAEHXZ
		test	EAX,EAX
		je	L4E6
		push	0123h
		push	offset FLAT:_DATA[04Ch]
		push	offset FLAT:_DATA[06Ch]
		call	near ptr __assert
L4E6:		mov	EAX,070h[EBP]
		mov	EDX,074h[EBP]
		and	EAX,010h
		xor	EDX,EDX
		or	EDX,EAX
		je	L505
		push	offset FLAT:_DATA[07Ch]
		push	EBX
		call	near ptr ?error@Dsymbol@@QAAXPBDZZ
		add	ESP,8
L505:		mov	018h[ESP],EDI
		cmp	dword ptr 074h[EBX],0
		jne	L536
		mov	ECX,028h[EBX]
		xor	ESI,ESI
		cmp	4[ECX],ESI
		je	L536
L519:		push	1
		mov	EDX,028h[EBX]
		mov	ECX,8[EDX]
		push	EBX
		mov	EDI,[ESI*4][ECX]
		mov	EDX,[EDI]
		push	EBP
		mov	ECX,EDI
		call	dword ptr 030h[EDX]
		mov	ECX,028h[EBX]
		inc	ESI
		cmp	4[ECX],ESI
		ja	L519
L536:		mov	dword ptr 074h[EBX],0
		mov	ECX,EBP
		push	EBX
		call	near ptr ?push@Scope@@QAEPAU1@PAUScopeDsymbol@@@Z
		mov	EDI,EAX
		mov	ECX,EBX
		mov	dword ptr 070h[EAX],0
		mov	dword ptr 074h[EDI],0
		mov	014h[EDI],EBX
		mov	EDX,[EBX]
		call	dword ptr 0130h[EDX]
		test	EAX,EAX
		je	L56D
		mov	dword ptr 038h[EDI],1
L56D:		mov	014h[ESP],EDI
		mov	ECX,014h[ESP]
		xor	EDX,EDX
		mov	dword ptr 064h[ECX],5
		mov	EDI,EDX
		mov	068h[ECX],EDX
		mov	ECX,028h[EBX]
		mov	088h[ESP],EBP
		mov	EBP,4[ECX]
		test	EBP,EBP
		jle	L5CF
L594:		mov	EDX,028h[EBX]
		mov	ECX,8[EDX]
		mov	ESI,[EDI*4][ECX]
		mov	EDX,[ESI]
		mov	ECX,ESI
		call	dword ptr 0148h[EDX]
		test	EAX,EAX
		jne	L5BF
		mov	EDX,[ESI]
		mov	ECX,ESI
		call	dword ptr 0F4h[EDX]
		test	EAX,EAX
		je	L5CA
		cmp	dword ptr 4[ESI],0
		je	L5CA
L5BF:		push	dword ptr 014h[ESP]
		mov	EDX,[ESI]
		mov	ECX,ESI
		call	dword ptr 034h[EDX]
L5CA:		inc	EDI
		cmp	EDI,EBP
		jl	L594
L5CF:		xor	ESI,ESI
		test	EBP,EBP
		jle	L5EE
L5D5:		mov	ECX,028h[EBX]
		mov	EDX,8[ECX]
		mov	EDI,[ESI*4][EDX]
		push	dword ptr 014h[ESP]
		mov	EDX,[EDI]
		mov	ECX,EDI
		call	dword ptr 040h[EDX]
		inc	ESI
		cmp	ESI,EBP
		jl	L5D5
L5EE:		push	014h
		call	near ptr ??2@YAPAXI@Z
		add	ESP,4
		mov	ESI,EAX
		test	EAX,EAX
		je	L60B
		mov	ECX,ESI
		call	near ptr ??0Array@@QAE@XZ
		mov	dword ptr [ESI],offset FLAT:??_7Parameters@@6B@
L60B:		push	020h
		call	near ptr ??2@YAPAXI@Z
		add	ESP,4
		test	EAX,EAX
		mov	024h[ESP],EAX
		je	L63A
		mov	ECX,EAX
		push	0
		push	dword ptr ?p@Id@@2PAUIdentifier@@A
		push	dword ptr 04Ch[EBX]
		push	0
		push	0800h
		call	near ptr ??0Parameter@@QAE@_KPAUType@@PAUIdentifier@@PAUExpression@@@Z
		mov	024h[ESP],EAX
L63A:		mov	ECX,ESI
		push	dword ptr 024h[ESP]
		call	near ptr ?push@Array@@QAEXPAX@Z
		push	038h
		call	near ptr ??2@YAPAXI@Z
		add	ESP,4
		mov	EDI,EAX
		test	EAX,EAX
		je	L669
		mov	ECX,EDI
		push	1
		push	0
		push	dword ptr ?basic@Type@@2QAPAU1@A[048h]
		push	ESI
		call	near ptr ??0TypeFunction@@QAE@PAUParameters@@PAUType@@HW4LINK@@@Z
		mov	EDI,EAX
L669:		xor	EDX,EDX
		push	dword ptr 088h[ESP]
		mov	034h[ESP],EDX
		mov	ECX,034h[ESP]
		mov	030h[ESP],EDX
		mov	EAX,030h[ESP]
		push	ECX
		mov	ECX,EDI
		push	EAX
		mov	EAX,[EDI]
		call	dword ptr 030h[EAX]
		mov	020h[ESP],EAX
		push	014h
		call	near ptr ??2@YAPAXI@Z
		add	ESP,4
		test	EAX,EAX
		mov	038h[ESP],EAX
		je	L6B2
		mov	ECX,EAX
		call	near ptr ??0Array@@QAE@XZ
		mov	EDX,038h[ESP]
		mov	dword ptr [EDX],offset FLAT:??_7Parameters@@6B@
L6B2:		push	020h
		call	near ptr ??2@YAPAXI@Z
		add	ESP,4
		test	EAX,EAX
		mov	03Ch[ESP],EAX
		je	L6DD
		mov	ECX,EAX
		push	0
		push	0
		push	dword ptr 038h[EBX]
		push	0
		push	0800h
		call	near ptr ??0Parameter@@QAE@_KPAUType@@PAUIdentifier@@PAUExpression@@@Z
		mov	03Ch[ESP],EAX
L6DD:		push	dword ptr 03Ch[ESP]
		mov	ECX,03Ch[ESP]
		call	near ptr ?push@Array@@QAEXPAX@Z
		push	038h
		call	near ptr ??2@YAPAXI@Z
		add	ESP,4
		test	EAX,EAX
		mov	040h[ESP],EAX
		je	L715
		mov	ECX,EAX
		push	1
		push	0
		push	dword ptr ?basic@Type@@2QAPAU1@A[048h]
		push	dword ptr 044h[ESP]
		call	near ptr ??0TypeFunction@@QAE@PAUParameters@@PAUType@@HW4LINK@@@Z
		mov	040h[ESP],EAX
L715:		push	dword ptr 088h[ESP]
		mov	ECX,044h[ESP]
		mov	dword ptr 04Ch[ESP],0
		mov	dword ptr 048h[ESP],0
		mov	EDX,04Ch[ESP]
		mov	EAX,048h[ESP]
		push	EDX
		mov	EDX,[ECX]
		push	EAX
		call	dword ptr 030h[EDX]
		mov	EBP,?eq@Id@@2PAUIdentifier@@A
		mov	034h[ESP],EAX
		mov	dword ptr 050h[ESP],0
L751:		push	EBP
		push	EBX
		call	near ptr ?search_function@@YAPAUDsymbol@@PAUAggregateDeclaration@@PAUIdentifier@@@Z
		add	ESP,8
		mov	ESI,EAX
		test	EAX,EAX
		je	L771
		mov	EDX,[ESI]
		mov	ECX,ESI
		call	dword ptr 0F8h[EDX]
		mov	EDI,EAX
		test	EAX,EAX
		jmp short	L773
L771:		xor	EDI,EDI
L773:		je	L91D
		push	dword ptr 020h[ESP]
		mov	ECX,EDI
		call	near ptr ?overloadExactMatch@FuncDeclaration@@QAEPAU1@PAUType@@@Z
		test	EAX,EAX
		jne	L91D
		push	dword ptr 034h[ESP]
		mov	ECX,EDI
		call	near ptr ?overloadExactMatch@FuncDeclaration@@QAEPAU1@PAUType@@@Z
		test	EAX,EAX
		je	L91D
		mov	04Ch[ESP],EBP
		push	0E0h
		call	near ptr ??2@YAPAXI@Z
		add	ESP,4
		mov	ESI,EAX
		test	EAX,EAX
		je	L7D4
		mov	EDX,020h[EBX]
		push	dword ptr 020h[ESP]
		mov	EAX,01Ch[EBX]
		mov	ECX,ESI
		push	0
		push	0
		push	dword ptr 4[EDI]
		push	EDX
		push	EAX
		push	EDX
		push	EAX
		call	near ptr ??0FuncDeclaration@@QAE@ULoc@@0PAUIdentifier@@_KPAUType@@@Z
		mov	ESI,EAX
L7D4:		push	020h
		call	near ptr ??2@YAPAXI@Z
		add	ESP,4
		test	EAX,EAX
		mov	054h[ESP],EAX
		je	L7FD
		mov	ECX,EAX
		push	dword ptr ?p@Id@@2PAUIdentifier@@A
		push	dword ptr 020h[EBX]
		push	dword ptr 01Ch[EBX]
		call	near ptr ??0IdentifierExp@@QAE@ULoc@@PAUIdentifier@@@Z
		mov	054h[ESP],EAX
L7FD:		push	01Ch
		call	near ptr ??2@YAPAXI@Z
		add	ESP,4
		test	EAX,EAX
		mov	058h[ESP],EAX
		je	L824
		mov	ECX,EAX
		push	dword ptr 054h[ESP]
		push	dword ptr 020h[EBX]
		push	dword ptr 01Ch[EBX]
		call	near ptr ??0PtrExp@@QAE@ULoc@@PAUExpression@@@Z
		mov	058h[ESP],EAX
L824:		push	014h
		call	near ptr ??2@YAPAXI@Z
		add	ESP,4
		mov	EBP,EAX
		test	EAX,EAX
		je	L842
		mov	ECX,EBP
		call	near ptr ??0Array@@QAE@XZ
		mov	dword ptr 0[EBP],offset FLAT:??_7Expressions@@6B@
L842:		mov	ECX,EBP
		push	dword ptr 058h[ESP]
		call	near ptr ?push@Array@@QAEXPAX@Z
		push	020h
		call	near ptr ??2@YAPAXI@Z
		add	ESP,4
		test	EAX,EAX
		mov	05Ch[ESP],EAX
		je	L874
		mov	ECX,EAX
		push	dword ptr 04Ch[ESP]
		push	dword ptr 020h[EBX]
		push	dword ptr 01Ch[EBX]
		call	near ptr ??0IdentifierExp@@QAE@ULoc@@PAUIdentifier@@@Z
		mov	05Ch[ESP],EAX
L874:		push	020h
		call	near ptr ??2@YAPAXI@Z
		add	ESP,4
		test	EAX,EAX
		mov	060h[ESP],EAX
		je	L89C
		mov	ECX,EAX
		push	EBP
		push	dword ptr 060h[ESP]
		push	dword ptr 020h[EBX]
		push	dword ptr 01Ch[EBX]
		call	near ptr ??0CallExp@@QAE@ULoc@@PAUExpression@@PAUExpressions@@@Z
		mov	060h[ESP],EAX
L89C:		push	014h
		call	near ptr ??2@YAPAXI@Z
		add	ESP,4
		test	EAX,EAX
		mov	064h[ESP],EAX
		je	L8C3
		mov	ECX,EAX
		push	dword ptr 060h[ESP]
		push	dword ptr 020h[EBX]
		push	dword ptr 01Ch[EBX]
		call	near ptr ??0ReturnStatement@@QAE@ULoc@@PAUExpression@@@Z
		mov	064h[ESP],EAX
L8C3:		mov	EDX,064h[ESP]
		mov	054h[ESI],EDX
		mov	ECX,0Ch[EDI]
		mov	EDX,[ECX]
		call	dword ptr 0138h[EDX]
		test	EAX,EAX
		mov	068h[ESP],EAX
		jne	L8F1
		push	018Ch
		push	offset FLAT:_DATA[04Ch]
		push	offset FLAT:_DATA[0A0h]
		call	near ptr __assert
L8F1:		mov	ECX,028h[EAX]
		push	ESI
		call	near ptr ?push@Array@@QAEXPAX@Z
		mov	EDX,[ESI]
		mov	ECX,ESI
		push	1
		push	dword ptr 06Ch[ESP]
		push	dword ptr 090h[ESP]
		call	dword ptr 030h[EDX]
		mov	EDX,[ESI]
		mov	ECX,ESI
		push	dword ptr 014h[ESP]
		call	dword ptr 040h[EDX]
		mov	EBP,04Ch[ESP]
L91D:		inc	dword ptr 050h[ESP]
		mov	EAX,2
		mov	EBP,?cmp@Id@@2PAUIdentifier@@A
		cmp	050h[ESP],EAX
		jb	L751
		mov	EDI,014h[ESP]
		mov	EBP,088h[ESP]
		mov	ECX,EDI
		call	near ptr ?pop@Scope@@QAEPAU1@XZ
		cmp	dword ptr 074h[EBX],2
		jne	L9BD
		push	0
		lea	ECX,060h[EBX]
		call	near ptr ?setDim@Array@@QAEXI@Z
		mov	EDX,018h[ESP]
		test	EDX,EDX
		mov	dword ptr 050h[EBX],0
		mov	dword ptr 054h[EBX],0
		mov	dword ptr 058h[EBX],0
		jne	L993
		push	090h
		call	near ptr ??2Scope@@SAPAXI@Z
		add	ESP,4
		test	EAX,EAX
		je	L991
		mov	ESI,EBP
		mov	EDI,EAX
		mov	ECX,024h
		rep
		movsd
L991:		mov	EDX,EAX
L993:		mov	ECX,EDX
		mov	024h[EBX],EDX
		call	near ptr ?setNoFree@Scope@@QAEXXZ
		mov	EAX,024h[EBX]
		mov	ECX,4[EAX]
		push	EBX
		call	near ptr ?addDeferredSemantic@Module@@QAEXPAUDsymbol@@@Z
		mov	ESI,01Ch[ESP]
		mov	?dprogress@Module@@2IA,ESI
		pop	EDI
		pop	ESI
		pop	EBP
		pop	EBX
		add	ESP,074h
		ret	4
L9BD:		cmp	dword ptr 050h[EBX],0
		jne	L9CE
		mov	ESI,1
		mov	050h[EBX],ESI
		mov	054h[EBX],ESI
L9CE:		mov	EDX,050h[EBX]
		mov	ECX,054h[EBX]
		lea	EDX,-1[EDX][ECX]
		lea	ECX,-1[ECX]
		not	ECX
		and	EDX,ECX
		mov	050h[EBX],EDX
		xor	ESI,ESI
		mov	dword ptr 074h[EBX],1
		inc	dword ptr ?dprogress@Module@@2IA
		mov	088h[ESP],EBP
		mov	dword ptr 0A8h[EBX],1
		cmp	064h[EBX],ESI
		je	LA59
LA07:		mov	EDX,068h[EBX]
		mov	EBP,[ESI*4][EDX]
		mov	EDX,0[EBP]
		mov	ECX,EBP
		call	dword ptr 0124h[EDX]
		mov	EDI,EAX
		test	EAX,EAX
		je	LA53
		mov	EDX,[EDI]
		mov	ECX,EDI
		call	dword ptr 0168h[EDX]
		test	EAX,EAX
		jne	LA53
		cmp	dword ptr 048h[EDI],0
		jne	LA47
		push	dword ptr 020h[EBX]
		mov	ECX,028h[EDI]
		mov	EDX,[ECX]
		push	dword ptr 01Ch[EBX]
		call	dword ptr 094h[EDX]
		test	EAX,EAX
		jne	LA53
LA47:		mov	dword ptr 0A8h[EBX],0
		jmp short	LA59
LA53:		inc	ESI
		cmp	064h[EBX],ESI
		ja	LA07
LA59:		mov	EBP,088h[ESP]
		xor	EAX,EAX
		mov	EDI,[EBX]
		push	0
		mov	ECX,EBX
		push	dword ptr ?classInvariant@Id@@2PAUIdentifier@@A
		mov	078h[ESP],EAX
		mov	EDX,078h[ESP]
		mov	074h[ESP],EAX
		mov	ESI,074h[ESP]
		push	EDX
		push	ESI
		call	dword ptr 050h[EDI]
		mov	ESI,[EBX]
		mov	ECX,EBX
		push	0
		mov	07Ch[EBX],EAX
		push	dword ptr ?classNew@Id@@2PAUIdentifier@@A
		mov	dword ptr 080h[ESP],0
		mov	dword ptr 07Ch[ESP],0
		mov	EDX,080h[ESP]
		mov	EAX,07Ch[ESP]
		push	EDX
		push	EAX
		call	dword ptr 050h[ESI]
		mov	EDI,[EBX]
		mov	ECX,EBX
		push	0
		mov	080h[EBX],EAX
		push	dword ptr ?classDelete@Id@@2PAUIdentifier@@A
		mov	dword ptr 088h[ESP],0
		mov	dword ptr 084h[ESP],0
		mov	EDX,088h[ESP]
		mov	EAX,084h[ESP]
		push	EDX
		push	EAX
		call	dword ptr 050h[EDI]
		mov	084h[EBX],EAX
		cmp	dword ptr 010h[EBP],0
		je	LB0C
		push	EBP
		mov	ESI,[EBX]
		mov	ECX,EBX
		call	dword ptr 044h[ESI]
		mov	EAX,[EBX]
		mov	ECX,EBX
		push	EBP
		call	dword ptr 048h[EAX]
LB0C:		pop	EDI
		pop	ESI
		pop	EBP
		pop	EBX
		add	ESP,074h
		ret	4
?search@StructDeclaration@@UAEPAUDsymbol@@ULoc@@PAUIdentifier@@H@Z:
		push	ECX
		mov	EAX,024h[ECX]
		test	EAX,EAX
		push	EBX
		mov	EBX,ECX
		push	ESI
		je	LB28
		push	EAX
		mov	EDX,[EBX]
		call	dword ptr 040h[EDX]
LB28:		cmp	dword ptr 028h[EBX],0
		je	LB34
		cmp	dword ptr 02Ch[EBX],0
		jne	LB54
LB34:		mov	ECX,018h[ESP]
		mov	ESI,[ECX]
		call	dword ptr 014h[ESI]
		push	EAX
		push	offset FLAT:_DATA[0A4h]
		push	EBX
		call	near ptr ?error@Dsymbol@@QAAXPBDZZ
		add	ESP,0Ch
		xor	EAX,EAX
		pop	ESI
		pop	EBX
		pop	ECX
		ret	010h
LB54:		push	dword ptr 01Ch[ESP]
		mov	ECX,EBX
		push	dword ptr 01Ch[ESP]
		push	dword ptr 01Ch[ESP]
		push	dword ptr 01Ch[ESP]
		call	near ptr ?search@ScopeDsymbol@@UAEPAUDsymbol@@ULoc@@PAUIdentifier@@H@Z
		pop	ESI
		pop	EBX
		pop	ECX
		ret	010h
?toCBuffer@StructDeclaration@@UAEXPAUOutBuffer@@PAUHdrGenState@@@Z:
		push	ECX
		push	EBX
		push	EBP
		mov	EBP,ECX
		mov	EAX,0[EBP]
		push	ESI
		push	EDI
		mov	EDI,018h[ESP]
		call	dword ptr 028h[EAX]
		push	EAX
		push	offset FLAT:_DATA[0D0h]
		push	EDI
		call	near ptr ?printf@OutBuffer@@QAAXPBDZZ
		add	ESP,0Ch
		mov	ECX,EBP
		call	near ptr ?isAnonymous@Dsymbol@@QAEHXZ
		test	EAX,EAX
		jne	LBAC
		mov	EDX,0[EBP]
		mov	ECX,EBP
		call	dword ptr 014h[EDX]
		mov	ECX,EDI
		push	EAX
		call	near ptr ?writestring@OutBuffer@@QAEXPBD@Z
LBAC:		cmp	dword ptr 028h[EBP],0
		jne	LBCA
		push	03Bh
		mov	ECX,EDI
		call	near ptr ?writeByte@OutBuffer@@QAEXI@Z
		mov	ECX,EDI
		call	near ptr ?writenl@OutBuffer@@QAEXXZ
		pop	EDI
		pop	ESI
		pop	EBP
		pop	EBX
		pop	EAX
		ret	8
LBCA:		mov	ECX,EDI
		call	near ptr ?writenl@OutBuffer@@QAEXXZ
		mov	ECX,EDI
		push	07Bh
		call	near ptr ?writeByte@OutBuffer@@QAEXI@Z
		mov	ECX,EDI
		call	near ptr ?writenl@OutBuffer@@QAEXXZ
		mov	EDX,028h[EBP]
		xor	EBX,EBX
		cmp	4[EDX],EBX
		je	LC15
LBEB:		mov	ECX,028h[EBP]
		mov	EDX,8[ECX]
		mov	ESI,[EBX*4][EDX]
		push	offset FLAT:_DATA[0D4h]
		mov	ECX,EDI
		call	near ptr ?writestring@OutBuffer@@QAEXPBD@Z
		mov	EDX,[ESI]
		mov	ECX,ESI
		push	dword ptr 01Ch[ESP]
		push	EDI
		call	dword ptr 05Ch[EDX]
		mov	ECX,028h[EBP]
		inc	EBX
		cmp	4[ECX],EBX
		ja	LBEB
LC15:		push	07Dh
		mov	ECX,EDI
		call	near ptr ?writeByte@OutBuffer@@QAEXI@Z
		mov	ECX,EDI
		call	near ptr ?writenl@OutBuffer@@QAEXXZ
		pop	EDI
		pop	ESI
		pop	EBP
		pop	EBX
		pop	EAX
		ret	8
		nop
		nop
		nop
?kind@StructDeclaration@@UAEPBDXZ:
		push	ECX
		mov	EAX,offset FLAT:_DATA[0DCh]
		pop	ECX
		ret
??0UnionDeclaration@@QAE@ULoc@@PAUIdentifier@@@Z:
		push	EBX
		mov	EBX,ECX
		push	dword ptr 010h[ESP]
		push	dword ptr 010h[ESP]
		push	dword ptr 010h[ESP]
		call	near ptr ??0StructDeclaration@@QAE@ULoc@@PAUIdentifier@@@Z
		mov	EAX,EBX
		mov	dword ptr [EBX],offset FLAT:??_7UnionDeclaration@@6B@
		pop	EBX
		ret	0Ch
?syntaxCopy@UnionDeclaration@@UAEPAUDsymbol@@PAU2@@Z:
		push	EBX
		push	ESI
		push	EDI
		mov	EDI,ECX
		cmp	dword ptr 010h[ESP],0
		je	LC6A
		mov	EBX,010h[ESP]
		jmp short	LC91
LC6A:		push	0B0h
		call	near ptr ??2@YAPAXI@Z
		add	ESP,4
		mov	ESI,EAX
		test	EAX,EAX
		je	LC8F
		mov	ECX,ESI
		push	dword ptr 4[EDI]
		push	dword ptr 020h[EDI]
		push	dword ptr 01Ch[EDI]
		call	near ptr ??0UnionDeclaration@@QAE@ULoc@@PAUIdentifier@@@Z
		mov	ESI,EAX
LC8F:		mov	EBX,ESI
LC91:		push	EBX
		mov	ECX,EDI
		call	near ptr ?syntaxCopy@StructDeclaration@@UAEPAUDsymbol@@PAU2@@Z
		mov	EAX,EBX
		pop	EDI
		pop	ESI
		pop	EBX
		ret	4
?kind@UnionDeclaration@@UAEPBDXZ:
		push	ECX
		mov	EAX,offset FLAT:_DATA[0E4h]
		pop	ECX
		ret
_TEXT	ends
_DATA	segment
D0	db	068h,061h,073h,020h,066h,06fh,072h,077h
	db	061h,072h,064h,020h,072h,065h,066h,065h
	db	072h,065h,06eh,063h,065h,073h,000h,000h
D18	db	075h,06eh,06bh,06eh,06fh,077h,06eh,020h
	db	073h,069h,07ah,065h,000h,000h,000h,000h
D28	db	06eh,06fh,020h,073h,069h,07ah,065h,020h
	db	079h,065h,074h,020h,066h,06fh,072h,020h
	db	066h,06fh,072h,077h,061h,072h,064h,020h
	db	072h,065h,066h,065h,072h,065h,06eh,063h
	db	065h,000h,000h,000h
D4C	db	073h,074h,072h,075h
	db	063h,074h,02eh,063h,000h,000h,000h,000h
D58	db	073h,069h,07ah,065h,020h,021h,03dh,020h
	db	033h,000h,000h,000h
D64	db	074h,079h,070h,065h
	db	000h,000h,000h,000h
D6C	db	021h,069h,073h,041h
	db	06eh,06fh,06eh,079h,06dh,06fh,075h,073h
	db	028h,029h,000h,000h
D7C	db	073h,074h,072h,075h
	db	063h,074h,073h,02ch,020h,075h,06eh,069h
	db	06fh,06eh,073h,020h,063h,061h,06eh,06eh
	db	06fh,074h,020h,062h,065h,020h,061h,062h
	db	073h,074h,072h,061h,063h,074h,000h,000h
DA0	db	073h,000h,000h,000h
DA4	db	069h,073h,020h,066h
	db	06fh,072h,077h,061h,072h,064h,020h,072h
	db	065h,066h,065h,072h,065h,06eh,063h,065h
	db	064h,020h,077h,068h,065h,06eh,020h,06ch
	db	06fh,06fh,06bh,069h,06eh,067h,020h,066h
	db	06fh,072h,020h,027h,025h,073h,027h,000h
DD0	db	025h,073h,020h,000h
DD4	db	020h,020h,020h,020h
	db	000h,000h,000h,000h
DDC	db	073h,074h,072h,075h
	db	063h,074h,000h,000h
DE4	db	075h,06eh,069h,06fh
	db	06eh,000h
_DATA	ends
CONST	segment
CONST	ends
_BSS	segment
_BSS	ends
??_7FuncDeclarations@@6B@	comdat
	dd	offset FLAT:??_GFuncDeclarations@@UAEPAXI@Z
	dd	offset FLAT:?equals@Object@@UAEHPAU1@@Z
	dd	offset FLAT:?hashCode@Object@@UAEIXZ
	dd	offset FLAT:?compare@Object@@UAEHPAU1@@Z
	dd	offset FLAT:?print@Object@@UAEXXZ
	dd	offset FLAT:?toChars@Array@@UAEPADXZ
	dd	offset FLAT:?toDchars@Object@@UAEPADXZ
	dd	offset FLAT:?toBuffer@Object@@UAEXPAUOutBuffer@@@Z
	dd	offset FLAT:?dyncast@Object@@UAEHXZ
??_7FuncDeclarations@@6B@	ends
??_7AggregateDeclaration@@6B@	comdat
	dd	offset FLAT:??_GAggregateDeclaration@@UAEPAXI@Z
	dd	offset FLAT:?equals@Dsymbol@@UAEHPAUObject@@@Z
	dd	offset FLAT:?hashCode@Object@@UAEIXZ
	dd	offset FLAT:?compare@Object@@UAEHPAU1@@Z
	dd	offset FLAT:?print@Object@@UAEXXZ
	dd	offset FLAT:?toChars@Dsymbol@@UAEPADXZ
	dd	offset FLAT:?toDchars@Object@@UAEPADXZ
	dd	offset FLAT:?toBuffer@Object@@UAEXPAUOutBuffer@@@Z
	dd	offset FLAT:?dyncast@Dsymbol@@UAEHXZ
	dd	offset FLAT:?toPrettyChars@Dsymbol@@UAEPBDXZ
	dd	offset FLAT:?kind@ScopeDsymbol@@UAEPBDXZ
	dd	offset FLAT:?toAlias@Dsymbol@@UAEPAU1@XZ
	dd	offset FLAT:?addMember@Dsymbol@@UAEHPAUScope@@PAUScopeDsymbol@@H@Z
	dd	offset FLAT:?setScope@Dsymbol@@UAEXPAUScope@@@Z
	dd	offset FLAT:?importAll@Dsymbol@@UAEXPAUScope@@@Z
	dd	offset FLAT:?semantic0@Dsymbol@@UAEXPAUScope@@@Z
	dd	offset FLAT:?semantic@Dsymbol@@UAEXPAUScope@@@Z
	dd	offset FLAT:?semantic2@AggregateDeclaration@@UAEXPAUScope@@@Z
	dd	offset FLAT:?semantic3@AggregateDeclaration@@UAEXPAUScope@@@Z
	dd	offset FLAT:?inlineScan@AggregateDeclaration@@UAEXXZ
	dd	offset FLAT:?search@ScopeDsymbol@@UAEPAUDsymbol@@ULoc@@PAUIdentifier@@H@Z
	dd	offset FLAT:?overloadInsert@Dsymbol@@UAEHPAU1@@Z
	dd	offset FLAT:?toHBuffer@Dsymbol@@UAEXPAUOutBuffer@@PAUHdrGenState@@@Z
	dd	offset FLAT:?toCBuffer@Dsymbol@@UAEXPAUOutBuffer@@PAUHdrGenState@@@Z
	dd	offset FLAT:?toDocBuffer@AggregateDeclaration@@UAEXPAUOutBuffer@@@Z
	dd	offset FLAT:?toJsonBuffer@AggregateDeclaration@@UAEXPAUOutBuffer@@@Z
	dd	offset FLAT:?size@AggregateDeclaration@@UAEIULoc@@@Z
	dd	offset FLAT:?isforwardRef@ScopeDsymbol@@UAEHXZ
	dd	offset FLAT:?defineRef@ScopeDsymbol@@UAEXPAUDsymbol@@@Z
	dd	offset FLAT:?isThis@Dsymbol@@UAEPAUAggregateDeclaration@@XZ
	dd	offset FLAT:?isClassMember@Dsymbol@@UAEPAUClassDeclaration@@XZ
	dd	offset FLAT:?isExport@Dsymbol@@UAEHXZ
	dd	offset FLAT:?isImportedSymbol@Dsymbol@@UAEHXZ
	dd	offset FLAT:?isDeprecated@AggregateDeclaration@@UAEHXZ
	dd	offset FLAT:?isLabel@Dsymbol@@UAEPAULabelDsymbol@@XZ
	dd	offset FLAT:?isMember@Dsymbol@@UAEPAUAggregateDeclaration@@XZ
	dd	offset FLAT:?getType@AggregateDeclaration@@UAEPAUType@@XZ
	dd	offset FLAT:?mangle@Dsymbol@@UAEPADXZ
	dd	offset FLAT:?needThis@Dsymbol@@UAEHXZ
	dd	offset FLAT:?prot@AggregateDeclaration@@UAE?AW4PROT@@XZ
	dd	offset FLAT:?syntaxCopy@ScopeDsymbol@@UAEPAUDsymbol@@PAU2@@Z
	dd	offset FLAT:?oneMember@Dsymbol@@UAEHPAPAU1@@Z
	dd	offset FLAT:?hasPointers@Dsymbol@@UAEHXZ
	dd	offset FLAT:?addLocalClass@Dsymbol@@UAEXPAUClassDeclarations@@@Z
	dd	offset FLAT:?checkCtorConstInit@Dsymbol@@UAEXXZ
	dd	offset FLAT:?addComment@Dsymbol@@UAEXPAE@Z
	dd	offset FLAT:?emitComment@AggregateDeclaration@@UAEXPAUScope@@@Z
	dd	offset FLAT:?toSymbol@Dsymbol@@UAEPAUSymbol@@XZ
	dd	offset FLAT:?toObjFile@Dsymbol@@UAEXH@Z
	dd	offset FLAT:?cvMember@Dsymbol@@UAEHPAE@Z
	dd	offset FLAT:?isPackage@Dsymbol@@UAEPAUPackage@@XZ
	dd	offset FLAT:?isModule@Dsymbol@@UAEPAUModule@@XZ
	dd	offset FLAT:?isEnumMember@Dsymbol@@UAEPAUEnumMember@@XZ
	dd	offset FLAT:?isTemplateDeclaration@Dsymbol@@UAEPAUTemplateDeclaration@@XZ
	dd	offset FLAT:?isTemplateInstance@Dsymbol@@UAEPAUTemplateInstance@@XZ
	dd	offset FLAT:?isTemplateMixin@Dsymbol@@UAEPAUTemplateMixin@@XZ
	dd	offset FLAT:?isDeclaration@Dsymbol@@UAEPAUDeclaration@@XZ
	dd	offset FLAT:?isThisDeclaration@Dsymbol@@UAEPAUThisDeclaration@@XZ
	dd	offset FLAT:?isTupleDeclaration@Dsymbol@@UAEPAUTupleDeclaration@@XZ
	dd	offset FLAT:?isTypedefDeclaration@Dsymbol@@UAEPAUTypedefDeclaration@@XZ
	dd	offset FLAT:?isAliasDeclaration@Dsymbol@@UAEPAUAliasDeclaration@@XZ
	dd	offset FLAT:?isAggregateDeclaration@AggregateDeclaration@@UAEPAU1@XZ
	dd	offset FLAT:?isFuncDeclaration@Dsymbol@@UAEPAUFuncDeclaration@@XZ
	dd	offset FLAT:?isFuncAliasDeclaration@Dsymbol@@UAEPAUFuncAliasDeclaration@@XZ
	dd	offset FLAT:?isFuncLiteralDeclaration@Dsymbol@@UAEPAUFuncLiteralDeclaration@@XZ
	dd	offset FLAT:?isCtorDeclaration@Dsymbol@@UAEPAUCtorDeclaration@@XZ
	dd	offset FLAT:?isPostBlitDeclaration@Dsymbol@@UAEPAUPostBlitDeclaration@@XZ
	dd	offset FLAT:?isDtorDeclaration@Dsymbol@@UAEPAUDtorDeclaration@@XZ
	dd	offset FLAT:?isStaticCtorDeclaration@Dsymbol@@UAEPAUStaticCtorDeclaration@@XZ
	dd	offset FLAT:?isStaticDtorDeclaration@Dsymbol@@UAEPAUStaticDtorDeclaration@@XZ
	dd	offset FLAT:?isInvariantDeclaration@Dsymbol@@UAEPAUInvariantDeclaration@@XZ
	dd	offset FLAT:?isUnitTestDeclaration@Dsymbol@@UAEPAUUnitTestDeclaration@@XZ
	dd	offset FLAT:?isNewDeclaration@Dsymbol@@UAEPAUNewDeclaration@@XZ
	dd	offset FLAT:?isVarDeclaration@Dsymbol@@UAEPAUVarDeclaration@@XZ
	dd	offset FLAT:?isClassDeclaration@Dsymbol@@UAEPAUClassDeclaration@@XZ
	dd	offset FLAT:?isStructDeclaration@Dsymbol@@UAEPAUStructDeclaration@@XZ
	dd	offset FLAT:?isUnionDeclaration@Dsymbol@@UAEPAUUnionDeclaration@@XZ
	dd	offset FLAT:?isInterfaceDeclaration@Dsymbol@@UAEPAUInterfaceDeclaration@@XZ
	dd	offset FLAT:?isScopeDsymbol@ScopeDsymbol@@UAEPAU1@XZ
	dd	offset FLAT:?isWithScopeSymbol@Dsymbol@@UAEPAUWithScopeSymbol@@XZ
	dd	offset FLAT:?isArrayScopeSymbol@Dsymbol@@UAEPAUArrayScopeSymbol@@XZ
	dd	offset FLAT:?isImport@Dsymbol@@UAEPAUImport@@XZ
	dd	offset FLAT:?isEnumDeclaration@Dsymbol@@UAEPAUEnumDeclaration@@XZ
	dd	offset FLAT:?isDeleteDeclaration@Dsymbol@@UAEPAUDeleteDeclaration@@XZ
	dd	offset FLAT:?isSymbolDeclaration@Dsymbol@@UAEPAUSymbolDeclaration@@XZ
	dd	offset FLAT:?isAttribDeclaration@Dsymbol@@UAEPAUAttribDeclaration@@XZ
	dd	offset FLAT:?isOverloadSet@Dsymbol@@UAEPAUOverloadSet@@XZ
	dd	offset FLAT:?symtabInsert@ScopeDsymbol@@UAEPAUDsymbol@@PAU2@@Z
	dd	offset FLAT:?getAccess@AggregateDeclaration@@UAE?AW4PROT@@PAUDsymbol@@@Z
??_7AggregateDeclaration@@6B@	ends
??_GFuncDeclarations@@UAEPAXI@Z	comdat
	assume	CS:??_GFuncDeclarations@@UAEPAXI@Z
L0:		push	EBX
		mov	EBX,ECX
		test	ECX,ECX
		je	L25
		mov	dword ptr [EBX],offset FLAT:??_7FuncDeclarations@@6B@
		call	near ptr ??1Array@@UAE@XZ
		test	dword ptr 8[ESP],1
		je	L25
		push	EBX
		call	near ptr ??3@YAXPAX@Z
		add	ESP,4
L25:		mov	EAX,EBX
		pop	EBX
		ret	4
??_GFuncDeclarations@@UAEPAXI@Z	ends
??_7ScopeDsymbol@@6B@	comdat
	dd	offset FLAT:??_GScopeDsymbol@@UAEPAXI@Z
	dd	offset FLAT:?equals@Dsymbol@@UAEHPAUObject@@@Z
	dd	offset FLAT:?hashCode@Object@@UAEIXZ
	dd	offset FLAT:?compare@Object@@UAEHPAU1@@Z
	dd	offset FLAT:?print@Object@@UAEXXZ
	dd	offset FLAT:?toChars@Dsymbol@@UAEPADXZ
	dd	offset FLAT:?toDchars@Object@@UAEPADXZ
	dd	offset FLAT:?toBuffer@Object@@UAEXPAUOutBuffer@@@Z
	dd	offset FLAT:?dyncast@Dsymbol@@UAEHXZ
	dd	offset FLAT:?toPrettyChars@Dsymbol@@UAEPBDXZ
	dd	offset FLAT:?kind@ScopeDsymbol@@UAEPBDXZ
	dd	offset FLAT:?toAlias@Dsymbol@@UAEPAU1@XZ
	dd	offset FLAT:?addMember@Dsymbol@@UAEHPAUScope@@PAUScopeDsymbol@@H@Z
	dd	offset FLAT:?setScope@Dsymbol@@UAEXPAUScope@@@Z
	dd	offset FLAT:?importAll@Dsymbol@@UAEXPAUScope@@@Z
	dd	offset FLAT:?semantic0@Dsymbol@@UAEXPAUScope@@@Z
	dd	offset FLAT:?semantic@Dsymbol@@UAEXPAUScope@@@Z
	dd	offset FLAT:?semantic2@Dsymbol@@UAEXPAUScope@@@Z
	dd	offset FLAT:?semantic3@Dsymbol@@UAEXPAUScope@@@Z
	dd	offset FLAT:?inlineScan@Dsymbol@@UAEXXZ
	dd	offset FLAT:?search@ScopeDsymbol@@UAEPAUDsymbol@@ULoc@@PAUIdentifier@@H@Z
	dd	offset FLAT:?overloadInsert@Dsymbol@@UAEHPAU1@@Z
	dd	offset FLAT:?toHBuffer@Dsymbol@@UAEXPAUOutBuffer@@PAUHdrGenState@@@Z
	dd	offset FLAT:?toCBuffer@Dsymbol@@UAEXPAUOutBuffer@@PAUHdrGenState@@@Z
	dd	offset FLAT:?toDocBuffer@Dsymbol@@UAEXPAUOutBuffer@@@Z
	dd	offset FLAT:?toJsonBuffer@Dsymbol@@UAEXPAUOutBuffer@@@Z
	dd	offset FLAT:?size@Dsymbol@@UAEIULoc@@@Z
	dd	offset FLAT:?isforwardRef@ScopeDsymbol@@UAEHXZ
	dd	offset FLAT:?defineRef@ScopeDsymbol@@UAEXPAUDsymbol@@@Z
	dd	offset FLAT:?isThis@Dsymbol@@UAEPAUAggregateDeclaration@@XZ
	dd	offset FLAT:?isClassMember@Dsymbol@@UAEPAUClassDeclaration@@XZ
	dd	offset FLAT:?isExport@Dsymbol@@UAEHXZ
	dd	offset FLAT:?isImportedSymbol@Dsymbol@@UAEHXZ
	dd	offset FLAT:?isDeprecated@Dsymbol@@UAEHXZ
	dd	offset FLAT:?isLabel@Dsymbol@@UAEPAULabelDsymbol@@XZ
	dd	offset FLAT:?isMember@Dsymbol@@UAEPAUAggregateDeclaration@@XZ
	dd	offset FLAT:?getType@Dsymbol@@UAEPAUType@@XZ
	dd	offset FLAT:?mangle@Dsymbol@@UAEPADXZ
	dd	offset FLAT:?needThis@Dsymbol@@UAEHXZ
	dd	offset FLAT:?prot@Dsymbol@@UAE?AW4PROT@@XZ
	dd	offset FLAT:?syntaxCopy@ScopeDsymbol@@UAEPAUDsymbol@@PAU2@@Z
	dd	offset FLAT:?oneMember@Dsymbol@@UAEHPAPAU1@@Z
	dd	offset FLAT:?hasPointers@Dsymbol@@UAEHXZ
	dd	offset FLAT:?addLocalClass@Dsymbol@@UAEXPAUClassDeclarations@@@Z
	dd	offset FLAT:?checkCtorConstInit@Dsymbol@@UAEXXZ
	dd	offset FLAT:?addComment@Dsymbol@@UAEXPAE@Z
	dd	offset FLAT:?emitComment@Dsymbol@@UAEXPAUScope@@@Z
	dd	offset FLAT:?toSymbol@Dsymbol@@UAEPAUSymbol@@XZ
	dd	offset FLAT:?toObjFile@Dsymbol@@UAEXH@Z
	dd	offset FLAT:?cvMember@Dsymbol@@UAEHPAE@Z
	dd	offset FLAT:?isPackage@Dsymbol@@UAEPAUPackage@@XZ
	dd	offset FLAT:?isModule@Dsymbol@@UAEPAUModule@@XZ
	dd	offset FLAT:?isEnumMember@Dsymbol@@UAEPAUEnumMember@@XZ
	dd	offset FLAT:?isTemplateDeclaration@Dsymbol@@UAEPAUTemplateDeclaration@@XZ
	dd	offset FLAT:?isTemplateInstance@Dsymbol@@UAEPAUTemplateInstance@@XZ
	dd	offset FLAT:?isTemplateMixin@Dsymbol@@UAEPAUTemplateMixin@@XZ
	dd	offset FLAT:?isDeclaration@Dsymbol@@UAEPAUDeclaration@@XZ
	dd	offset FLAT:?isThisDeclaration@Dsymbol@@UAEPAUThisDeclaration@@XZ
	dd	offset FLAT:?isTupleDeclaration@Dsymbol@@UAEPAUTupleDeclaration@@XZ
	dd	offset FLAT:?isTypedefDeclaration@Dsymbol@@UAEPAUTypedefDeclaration@@XZ
	dd	offset FLAT:?isAliasDeclaration@Dsymbol@@UAEPAUAliasDeclaration@@XZ
	dd	offset FLAT:?isAggregateDeclaration@Dsymbol@@UAEPAUAggregateDeclaration@@XZ
	dd	offset FLAT:?isFuncDeclaration@Dsymbol@@UAEPAUFuncDeclaration@@XZ
	dd	offset FLAT:?isFuncAliasDeclaration@Dsymbol@@UAEPAUFuncAliasDeclaration@@XZ
	dd	offset FLAT:?isFuncLiteralDeclaration@Dsymbol@@UAEPAUFuncLiteralDeclaration@@XZ
	dd	offset FLAT:?isCtorDeclaration@Dsymbol@@UAEPAUCtorDeclaration@@XZ
	dd	offset FLAT:?isPostBlitDeclaration@Dsymbol@@UAEPAUPostBlitDeclaration@@XZ
	dd	offset FLAT:?isDtorDeclaration@Dsymbol@@UAEPAUDtorDeclaration@@XZ
	dd	offset FLAT:?isStaticCtorDeclaration@Dsymbol@@UAEPAUStaticCtorDeclaration@@XZ
	dd	offset FLAT:?isStaticDtorDeclaration@Dsymbol@@UAEPAUStaticDtorDeclaration@@XZ
	dd	offset FLAT:?isInvariantDeclaration@Dsymbol@@UAEPAUInvariantDeclaration@@XZ
	dd	offset FLAT:?isUnitTestDeclaration@Dsymbol@@UAEPAUUnitTestDeclaration@@XZ
	dd	offset FLAT:?isNewDeclaration@Dsymbol@@UAEPAUNewDeclaration@@XZ
	dd	offset FLAT:?isVarDeclaration@Dsymbol@@UAEPAUVarDeclaration@@XZ
	dd	offset FLAT:?isClassDeclaration@Dsymbol@@UAEPAUClassDeclaration@@XZ
	dd	offset FLAT:?isStructDeclaration@Dsymbol@@UAEPAUStructDeclaration@@XZ
	dd	offset FLAT:?isUnionDeclaration@Dsymbol@@UAEPAUUnionDeclaration@@XZ
	dd	offset FLAT:?isInterfaceDeclaration@Dsymbol@@UAEPAUInterfaceDeclaration@@XZ
	dd	offset FLAT:?isScopeDsymbol@ScopeDsymbol@@UAEPAU1@XZ
	dd	offset FLAT:?isWithScopeSymbol@Dsymbol@@UAEPAUWithScopeSymbol@@XZ
	dd	offset FLAT:?isArrayScopeSymbol@Dsymbol@@UAEPAUArrayScopeSymbol@@XZ
	dd	offset FLAT:?isImport@Dsymbol@@UAEPAUImport@@XZ
	dd	offset FLAT:?isEnumDeclaration@Dsymbol@@UAEPAUEnumDeclaration@@XZ
	dd	offset FLAT:?isDeleteDeclaration@Dsymbol@@UAEPAUDeleteDeclaration@@XZ
	dd	offset FLAT:?isSymbolDeclaration@Dsymbol@@UAEPAUSymbolDeclaration@@XZ
	dd	offset FLAT:?isAttribDeclaration@Dsymbol@@UAEPAUAttribDeclaration@@XZ
	dd	offset FLAT:?isOverloadSet@Dsymbol@@UAEPAUOverloadSet@@XZ
	dd	offset FLAT:?symtabInsert@ScopeDsymbol@@UAEPAUDsymbol@@PAU2@@Z
??_7ScopeDsymbol@@6B@	ends
??_7Dsymbol@@6B@	comdat
	dd	offset FLAT:??_GDsymbol@@UAEPAXI@Z
	dd	offset FLAT:?equals@Dsymbol@@UAEHPAUObject@@@Z
	dd	offset FLAT:?hashCode@Object@@UAEIXZ
	dd	offset FLAT:?compare@Object@@UAEHPAU1@@Z
	dd	offset FLAT:?print@Object@@UAEXXZ
	dd	offset FLAT:?toChars@Dsymbol@@UAEPADXZ
	dd	offset FLAT:?toDchars@Object@@UAEPADXZ
	dd	offset FLAT:?toBuffer@Object@@UAEXPAUOutBuffer@@@Z
	dd	offset FLAT:?dyncast@Dsymbol@@UAEHXZ
	dd	offset FLAT:?toPrettyChars@Dsymbol@@UAEPBDXZ
	dd	offset FLAT:?kind@Dsymbol@@UAEPBDXZ
	dd	offset FLAT:?toAlias@Dsymbol@@UAEPAU1@XZ
	dd	offset FLAT:?addMember@Dsymbol@@UAEHPAUScope@@PAUScopeDsymbol@@H@Z
	dd	offset FLAT:?setScope@Dsymbol@@UAEXPAUScope@@@Z
	dd	offset FLAT:?importAll@Dsymbol@@UAEXPAUScope@@@Z
	dd	offset FLAT:?semantic0@Dsymbol@@UAEXPAUScope@@@Z
	dd	offset FLAT:?semantic@Dsymbol@@UAEXPAUScope@@@Z
	dd	offset FLAT:?semantic2@Dsymbol@@UAEXPAUScope@@@Z
	dd	offset FLAT:?semantic3@Dsymbol@@UAEXPAUScope@@@Z
	dd	offset FLAT:?inlineScan@Dsymbol@@UAEXXZ
	dd	offset FLAT:?search@Dsymbol@@UAEPAU1@ULoc@@PAUIdentifier@@H@Z
	dd	offset FLAT:?overloadInsert@Dsymbol@@UAEHPAU1@@Z
	dd	offset FLAT:?toHBuffer@Dsymbol@@UAEXPAUOutBuffer@@PAUHdrGenState@@@Z
	dd	offset FLAT:?toCBuffer@Dsymbol@@UAEXPAUOutBuffer@@PAUHdrGenState@@@Z
	dd	offset FLAT:?toDocBuffer@Dsymbol@@UAEXPAUOutBuffer@@@Z
	dd	offset FLAT:?toJsonBuffer@Dsymbol@@UAEXPAUOutBuffer@@@Z
	dd	offset FLAT:?size@Dsymbol@@UAEIULoc@@@Z
	dd	offset FLAT:?isforwardRef@Dsymbol@@UAEHXZ
	dd	offset FLAT:?defineRef@Dsymbol@@UAEXPAU1@@Z
	dd	offset FLAT:?isThis@Dsymbol@@UAEPAUAggregateDeclaration@@XZ
	dd	offset FLAT:?isClassMember@Dsymbol@@UAEPAUClassDeclaration@@XZ
	dd	offset FLAT:?isExport@Dsymbol@@UAEHXZ
	dd	offset FLAT:?isImportedSymbol@Dsymbol@@UAEHXZ
	dd	offset FLAT:?isDeprecated@Dsymbol@@UAEHXZ
	dd	offset FLAT:?isLabel@Dsymbol@@UAEPAULabelDsymbol@@XZ
	dd	offset FLAT:?isMember@Dsymbol@@UAEPAUAggregateDeclaration@@XZ
	dd	offset FLAT:?getType@Dsymbol@@UAEPAUType@@XZ
	dd	offset FLAT:?mangle@Dsymbol@@UAEPADXZ
	dd	offset FLAT:?needThis@Dsymbol@@UAEHXZ
	dd	offset FLAT:?prot@Dsymbol@@UAE?AW4PROT@@XZ
	dd	offset FLAT:?syntaxCopy@Dsymbol@@UAEPAU1@PAU1@@Z
	dd	offset FLAT:?oneMember@Dsymbol@@UAEHPAPAU1@@Z
	dd	offset FLAT:?hasPointers@Dsymbol@@UAEHXZ
	dd	offset FLAT:?addLocalClass@Dsymbol@@UAEXPAUClassDeclarations@@@Z
	dd	offset FLAT:?checkCtorConstInit@Dsymbol@@UAEXXZ
	dd	offset FLAT:?addComment@Dsymbol@@UAEXPAE@Z
	dd	offset FLAT:?emitComment@Dsymbol@@UAEXPAUScope@@@Z
	dd	offset FLAT:?toSymbol@Dsymbol@@UAEPAUSymbol@@XZ
	dd	offset FLAT:?toObjFile@Dsymbol@@UAEXH@Z
	dd	offset FLAT:?cvMember@Dsymbol@@UAEHPAE@Z
	dd	offset FLAT:?isPackage@Dsymbol@@UAEPAUPackage@@XZ
	dd	offset FLAT:?isModule@Dsymbol@@UAEPAUModule@@XZ
	dd	offset FLAT:?isEnumMember@Dsymbol@@UAEPAUEnumMember@@XZ
	dd	offset FLAT:?isTemplateDeclaration@Dsymbol@@UAEPAUTemplateDeclaration@@XZ
	dd	offset FLAT:?isTemplateInstance@Dsymbol@@UAEPAUTemplateInstance@@XZ
	dd	offset FLAT:?isTemplateMixin@Dsymbol@@UAEPAUTemplateMixin@@XZ
	dd	offset FLAT:?isDeclaration@Dsymbol@@UAEPAUDeclaration@@XZ
	dd	offset FLAT:?isThisDeclaration@Dsymbol@@UAEPAUThisDeclaration@@XZ
	dd	offset FLAT:?isTupleDeclaration@Dsymbol@@UAEPAUTupleDeclaration@@XZ
	dd	offset FLAT:?isTypedefDeclaration@Dsymbol@@UAEPAUTypedefDeclaration@@XZ
	dd	offset FLAT:?isAliasDeclaration@Dsymbol@@UAEPAUAliasDeclaration@@XZ
	dd	offset FLAT:?isAggregateDeclaration@Dsymbol@@UAEPAUAggregateDeclaration@@XZ
	dd	offset FLAT:?isFuncDeclaration@Dsymbol@@UAEPAUFuncDeclaration@@XZ
	dd	offset FLAT:?isFuncAliasDeclaration@Dsymbol@@UAEPAUFuncAliasDeclaration@@XZ
	dd	offset FLAT:?isFuncLiteralDeclaration@Dsymbol@@UAEPAUFuncLiteralDeclaration@@XZ
	dd	offset FLAT:?isCtorDeclaration@Dsymbol@@UAEPAUCtorDeclaration@@XZ
	dd	offset FLAT:?isPostBlitDeclaration@Dsymbol@@UAEPAUPostBlitDeclaration@@XZ
	dd	offset FLAT:?isDtorDeclaration@Dsymbol@@UAEPAUDtorDeclaration@@XZ
	dd	offset FLAT:?isStaticCtorDeclaration@Dsymbol@@UAEPAUStaticCtorDeclaration@@XZ
	dd	offset FLAT:?isStaticDtorDeclaration@Dsymbol@@UAEPAUStaticDtorDeclaration@@XZ
	dd	offset FLAT:?isInvariantDeclaration@Dsymbol@@UAEPAUInvariantDeclaration@@XZ
	dd	offset FLAT:?isUnitTestDeclaration@Dsymbol@@UAEPAUUnitTestDeclaration@@XZ
	dd	offset FLAT:?isNewDeclaration@Dsymbol@@UAEPAUNewDeclaration@@XZ
	dd	offset FLAT:?isVarDeclaration@Dsymbol@@UAEPAUVarDeclaration@@XZ
	dd	offset FLAT:?isClassDeclaration@Dsymbol@@UAEPAUClassDeclaration@@XZ
	dd	offset FLAT:?isStructDeclaration@Dsymbol@@UAEPAUStructDeclaration@@XZ
	dd	offset FLAT:?isUnionDeclaration@Dsymbol@@UAEPAUUnionDeclaration@@XZ
	dd	offset FLAT:?isInterfaceDeclaration@Dsymbol@@UAEPAUInterfaceDeclaration@@XZ
	dd	offset FLAT:?isScopeDsymbol@Dsymbol@@UAEPAUScopeDsymbol@@XZ
	dd	offset FLAT:?isWithScopeSymbol@Dsymbol@@UAEPAUWithScopeSymbol@@XZ
	dd	offset FLAT:?isArrayScopeSymbol@Dsymbol@@UAEPAUArrayScopeSymbol@@XZ
	dd	offset FLAT:?isImport@Dsymbol@@UAEPAUImport@@XZ
	dd	offset FLAT:?isEnumDeclaration@Dsymbol@@UAEPAUEnumDeclaration@@XZ
	dd	offset FLAT:?isDeleteDeclaration@Dsymbol@@UAEPAUDeleteDeclaration@@XZ
	dd	offset FLAT:?isSymbolDeclaration@Dsymbol@@UAEPAUSymbolDeclaration@@XZ
	dd	offset FLAT:?isAttribDeclaration@Dsymbol@@UAEPAUAttribDeclaration@@XZ
	dd	offset FLAT:?isOverloadSet@Dsymbol@@UAEPAUOverloadSet@@XZ
??_7Dsymbol@@6B@	ends
??_7Object@@6B@	comdat
	dd	offset FLAT:??_GObject@@UAEPAXI@Z
	dd	offset FLAT:?equals@Object@@UAEHPAU1@@Z
	dd	offset FLAT:?hashCode@Object@@UAEIXZ
	dd	offset FLAT:?compare@Object@@UAEHPAU1@@Z
	dd	offset FLAT:?print@Object@@UAEXXZ
	dd	offset FLAT:?toChars@Object@@UAEPADXZ
	dd	offset FLAT:?toDchars@Object@@UAEPADXZ
	dd	offset FLAT:?toBuffer@Object@@UAEXPAUOutBuffer@@@Z
	dd	offset FLAT:?dyncast@Object@@UAEHXZ
??_7Object@@6B@	ends
??_GAggregateDeclaration@@UAEPAXI@Z	comdat
	assume	CS:??_GAggregateDeclaration@@UAEPAXI@Z
L0:		push	ECX
		test	ECX,ECX
		push	EBX
		mov	EBX,ECX
		push	ESI
		je	L4F
		lea	ESI,088h[EBX]
		mov	dword ptr [EBX],offset FLAT:??_7AggregateDeclaration@@6B@
		mov	ECX,ESI
		mov	dword ptr [ESI],offset FLAT:??_7FuncDeclarations@@6B@
		call	near ptr ??1Array@@UAE@XZ
		lea	ECX,060h[EBX]
		call	near ptr ??1Array@@UAE@XZ
		mov	dword ptr [EBX],offset FLAT:??_7ScopeDsymbol@@6B@
		mov	dword ptr [EBX],offset FLAT:??_7Dsymbol@@6B@
		mov	dword ptr [EBX],offset FLAT:??_7Object@@6B@
		test	dword ptr 010h[ESP],1
		je	L4F
		push	EBX
		call	near ptr ??3@YAXPAX@Z
		add	ESP,4
L4F:		mov	EAX,EBX
		pop	ESI
		pop	EBX
		pop	ECX
		ret	4
??_GAggregateDeclaration@@UAEPAXI@Z	ends
?dyncast@Dsymbol@@UAEHXZ	comdat
	assume	CS:?dyncast@Dsymbol@@UAEHXZ
		push	ECX
		mov	EAX,2
		pop	ECX
		ret
?dyncast@Dsymbol@@UAEHXZ	ends
?addLocalClass@Dsymbol@@UAEXPAUClassDeclarations@@@Z	comdat
	assume	CS:?addLocalClass@Dsymbol@@UAEXPAUClassDeclarations@@@Z
		push	ECX
		pop	EAX
		ret	4
?addLocalClass@Dsymbol@@UAEXPAUClassDeclarations@@@Z	ends
?checkCtorConstInit@Dsymbol@@UAEXXZ	comdat
	assume	CS:?checkCtorConstInit@Dsymbol@@UAEXXZ
		push	ECX
		pop	EAX
		ret
?checkCtorConstInit@Dsymbol@@UAEXXZ	ends
?isPackage@Dsymbol@@UAEPAUPackage@@XZ	comdat
	assume	CS:?isPackage@Dsymbol@@UAEPAUPackage@@XZ
		push	ECX
		xor	EAX,EAX
		pop	ECX
		ret
?isPackage@Dsymbol@@UAEPAUPackage@@XZ	ends
?isModule@Dsymbol@@UAEPAUModule@@XZ	comdat
	assume	CS:?isModule@Dsymbol@@UAEPAUModule@@XZ
		push	ECX
		xor	EAX,EAX
		pop	ECX
		ret
?isModule@Dsymbol@@UAEPAUModule@@XZ	ends
?isEnumMember@Dsymbol@@UAEPAUEnumMember@@XZ	comdat
	assume	CS:?isEnumMember@Dsymbol@@UAEPAUEnumMember@@XZ
		push	ECX
		xor	EAX,EAX
		pop	ECX
		ret
?isEnumMember@Dsymbol@@UAEPAUEnumMember@@XZ	ends
?isTemplateDeclaration@Dsymbol@@UAEPAUTemplateDeclaration@@XZ	comdat
	assume	CS:?isTemplateDeclaration@Dsymbol@@UAEPAUTemplateDeclaration@@XZ
		push	ECX
		xor	EAX,EAX
		pop	ECX
		ret
?isTemplateDeclaration@Dsymbol@@UAEPAUTemplateDeclaration@@XZ	ends
?isTemplateInstance@Dsymbol@@UAEPAUTemplateInstance@@XZ	comdat
	assume	CS:?isTemplateInstance@Dsymbol@@UAEPAUTemplateInstance@@XZ
		push	ECX
		xor	EAX,EAX
		pop	ECX
		ret
?isTemplateInstance@Dsymbol@@UAEPAUTemplateInstance@@XZ	ends
?isTemplateMixin@Dsymbol@@UAEPAUTemplateMixin@@XZ	comdat
	assume	CS:?isTemplateMixin@Dsymbol@@UAEPAUTemplateMixin@@XZ
		push	ECX
		xor	EAX,EAX
		pop	ECX
		ret
?isTemplateMixin@Dsymbol@@UAEPAUTemplateMixin@@XZ	ends
?isDeclaration@Dsymbol@@UAEPAUDeclaration@@XZ	comdat
	assume	CS:?isDeclaration@Dsymbol@@UAEPAUDeclaration@@XZ
		push	ECX
		xor	EAX,EAX
		pop	ECX
		ret
?isDeclaration@Dsymbol@@UAEPAUDeclaration@@XZ	ends
?isThisDeclaration@Dsymbol@@UAEPAUThisDeclaration@@XZ	comdat
	assume	CS:?isThisDeclaration@Dsymbol@@UAEPAUThisDeclaration@@XZ
		push	ECX
		xor	EAX,EAX
		pop	ECX
		ret
?isThisDeclaration@Dsymbol@@UAEPAUThisDeclaration@@XZ	ends
?isTupleDeclaration@Dsymbol@@UAEPAUTupleDeclaration@@XZ	comdat
	assume	CS:?isTupleDeclaration@Dsymbol@@UAEPAUTupleDeclaration@@XZ
		push	ECX
		xor	EAX,EAX
		pop	ECX
		ret
?isTupleDeclaration@Dsymbol@@UAEPAUTupleDeclaration@@XZ	ends
?isTypedefDeclaration@Dsymbol@@UAEPAUTypedefDeclaration@@XZ	comdat
	assume	CS:?isTypedefDeclaration@Dsymbol@@UAEPAUTypedefDeclaration@@XZ
		push	ECX
		xor	EAX,EAX
		pop	ECX
		ret
?isTypedefDeclaration@Dsymbol@@UAEPAUTypedefDeclaration@@XZ	ends
?isAliasDeclaration@Dsymbol@@UAEPAUAliasDeclaration@@XZ	comdat
	assume	CS:?isAliasDeclaration@Dsymbol@@UAEPAUAliasDeclaration@@XZ
		push	ECX
		xor	EAX,EAX
		pop	ECX
		ret
?isAliasDeclaration@Dsymbol@@UAEPAUAliasDeclaration@@XZ	ends
?isAggregateDeclaration@AggregateDeclaration@@UAEPAU1@XZ	comdat
	assume	CS:?isAggregateDeclaration@AggregateDeclaration@@UAEPAU1@XZ
		push	ECX
		mov	EAX,ECX
		pop	ECX
		ret
?isAggregateDeclaration@AggregateDeclaration@@UAEPAU1@XZ	ends
?isFuncDeclaration@Dsymbol@@UAEPAUFuncDeclaration@@XZ	comdat
	assume	CS:?isFuncDeclaration@Dsymbol@@UAEPAUFuncDeclaration@@XZ
		push	ECX
		xor	EAX,EAX
		pop	ECX
		ret
?isFuncDeclaration@Dsymbol@@UAEPAUFuncDeclaration@@XZ	ends
?isFuncAliasDeclaration@Dsymbol@@UAEPAUFuncAliasDeclaration@@XZ	comdat
	assume	CS:?isFuncAliasDeclaration@Dsymbol@@UAEPAUFuncAliasDeclaration@@XZ
		push	ECX
		xor	EAX,EAX
		pop	ECX
		ret
?isFuncAliasDeclaration@Dsymbol@@UAEPAUFuncAliasDeclaration@@XZ	ends
?isFuncLiteralDeclaration@Dsymbol@@UAEPAUFuncLiteralDeclaration@@XZ	comdat
	assume	CS:?isFuncLiteralDeclaration@Dsymbol@@UAEPAUFuncLiteralDeclaration@@XZ
		push	ECX
		xor	EAX,EAX
		pop	ECX
		ret
?isFuncLiteralDeclaration@Dsymbol@@UAEPAUFuncLiteralDeclaration@@XZ	ends
?isCtorDeclaration@Dsymbol@@UAEPAUCtorDeclaration@@XZ	comdat
	assume	CS:?isCtorDeclaration@Dsymbol@@UAEPAUCtorDeclaration@@XZ
		push	ECX
		xor	EAX,EAX
		pop	ECX
		ret
?isCtorDeclaration@Dsymbol@@UAEPAUCtorDeclaration@@XZ	ends
?isPostBlitDeclaration@Dsymbol@@UAEPAUPostBlitDeclaration@@XZ	comdat
	assume	CS:?isPostBlitDeclaration@Dsymbol@@UAEPAUPostBlitDeclaration@@XZ
		push	ECX
		xor	EAX,EAX
		pop	ECX
		ret
?isPostBlitDeclaration@Dsymbol@@UAEPAUPostBlitDeclaration@@XZ	ends
?isDtorDeclaration@Dsymbol@@UAEPAUDtorDeclaration@@XZ	comdat
	assume	CS:?isDtorDeclaration@Dsymbol@@UAEPAUDtorDeclaration@@XZ
		push	ECX
		xor	EAX,EAX
		pop	ECX
		ret
?isDtorDeclaration@Dsymbol@@UAEPAUDtorDeclaration@@XZ	ends
?isStaticCtorDeclaration@Dsymbol@@UAEPAUStaticCtorDeclaration@@XZ	comdat
	assume	CS:?isStaticCtorDeclaration@Dsymbol@@UAEPAUStaticCtorDeclaration@@XZ
		push	ECX
		xor	EAX,EAX
		pop	ECX
		ret
?isStaticCtorDeclaration@Dsymbol@@UAEPAUStaticCtorDeclaration@@XZ	ends
?isStaticDtorDeclaration@Dsymbol@@UAEPAUStaticDtorDeclaration@@XZ	comdat
	assume	CS:?isStaticDtorDeclaration@Dsymbol@@UAEPAUStaticDtorDeclaration@@XZ
		push	ECX
		xor	EAX,EAX
		pop	ECX
		ret
?isStaticDtorDeclaration@Dsymbol@@UAEPAUStaticDtorDeclaration@@XZ	ends
?isInvariantDeclaration@Dsymbol@@UAEPAUInvariantDeclaration@@XZ	comdat
	assume	CS:?isInvariantDeclaration@Dsymbol@@UAEPAUInvariantDeclaration@@XZ
		push	ECX
		xor	EAX,EAX
		pop	ECX
		ret
?isInvariantDeclaration@Dsymbol@@UAEPAUInvariantDeclaration@@XZ	ends
?isUnitTestDeclaration@Dsymbol@@UAEPAUUnitTestDeclaration@@XZ	comdat
	assume	CS:?isUnitTestDeclaration@Dsymbol@@UAEPAUUnitTestDeclaration@@XZ
		push	ECX
		xor	EAX,EAX
		pop	ECX
		ret
?isUnitTestDeclaration@Dsymbol@@UAEPAUUnitTestDeclaration@@XZ	ends
?isNewDeclaration@Dsymbol@@UAEPAUNewDeclaration@@XZ	comdat
	assume	CS:?isNewDeclaration@Dsymbol@@UAEPAUNewDeclaration@@XZ
		push	ECX
		xor	EAX,EAX
		pop	ECX
		ret
?isNewDeclaration@Dsymbol@@UAEPAUNewDeclaration@@XZ	ends
?isVarDeclaration@Dsymbol@@UAEPAUVarDeclaration@@XZ	comdat
	assume	CS:?isVarDeclaration@Dsymbol@@UAEPAUVarDeclaration@@XZ
		push	ECX
		xor	EAX,EAX
		pop	ECX
		ret
?isVarDeclaration@Dsymbol@@UAEPAUVarDeclaration@@XZ	ends
?isClassDeclaration@Dsymbol@@UAEPAUClassDeclaration@@XZ	comdat
	assume	CS:?isClassDeclaration@Dsymbol@@UAEPAUClassDeclaration@@XZ
		push	ECX
		xor	EAX,EAX
		pop	ECX
		ret
?isClassDeclaration@Dsymbol@@UAEPAUClassDeclaration@@XZ	ends
?isStructDeclaration@Dsymbol@@UAEPAUStructDeclaration@@XZ	comdat
	assume	CS:?isStructDeclaration@Dsymbol@@UAEPAUStructDeclaration@@XZ
		push	ECX
		xor	EAX,EAX
		pop	ECX
		ret
?isStructDeclaration@Dsymbol@@UAEPAUStructDeclaration@@XZ	ends
?isUnionDeclaration@Dsymbol@@UAEPAUUnionDeclaration@@XZ	comdat
	assume	CS:?isUnionDeclaration@Dsymbol@@UAEPAUUnionDeclaration@@XZ
		push	ECX
		xor	EAX,EAX
		pop	ECX
		ret
?isUnionDeclaration@Dsymbol@@UAEPAUUnionDeclaration@@XZ	ends
?isInterfaceDeclaration@Dsymbol@@UAEPAUInterfaceDeclaration@@XZ	comdat
	assume	CS:?isInterfaceDeclaration@Dsymbol@@UAEPAUInterfaceDeclaration@@XZ
		push	ECX
		xor	EAX,EAX
		pop	ECX
		ret
?isInterfaceDeclaration@Dsymbol@@UAEPAUInterfaceDeclaration@@XZ	ends
?isScopeDsymbol@ScopeDsymbol@@UAEPAU1@XZ	comdat
	assume	CS:?isScopeDsymbol@ScopeDsymbol@@UAEPAU1@XZ
		push	ECX
		mov	EAX,ECX
		pop	ECX
		ret
?isScopeDsymbol@ScopeDsymbol@@UAEPAU1@XZ	ends
?isWithScopeSymbol@Dsymbol@@UAEPAUWithScopeSymbol@@XZ	comdat
	assume	CS:?isWithScopeSymbol@Dsymbol@@UAEPAUWithScopeSymbol@@XZ
		push	ECX
		xor	EAX,EAX
		pop	ECX
		ret
?isWithScopeSymbol@Dsymbol@@UAEPAUWithScopeSymbol@@XZ	ends
?isArrayScopeSymbol@Dsymbol@@UAEPAUArrayScopeSymbol@@XZ	comdat
	assume	CS:?isArrayScopeSymbol@Dsymbol@@UAEPAUArrayScopeSymbol@@XZ
		push	ECX
		xor	EAX,EAX
		pop	ECX
		ret
?isArrayScopeSymbol@Dsymbol@@UAEPAUArrayScopeSymbol@@XZ	ends
?isImport@Dsymbol@@UAEPAUImport@@XZ	comdat
	assume	CS:?isImport@Dsymbol@@UAEPAUImport@@XZ
		push	ECX
		xor	EAX,EAX
		pop	ECX
		ret
?isImport@Dsymbol@@UAEPAUImport@@XZ	ends
?isEnumDeclaration@Dsymbol@@UAEPAUEnumDeclaration@@XZ	comdat
	assume	CS:?isEnumDeclaration@Dsymbol@@UAEPAUEnumDeclaration@@XZ
		push	ECX
		xor	EAX,EAX
		pop	ECX
		ret
?isEnumDeclaration@Dsymbol@@UAEPAUEnumDeclaration@@XZ	ends
?isDeleteDeclaration@Dsymbol@@UAEPAUDeleteDeclaration@@XZ	comdat
	assume	CS:?isDeleteDeclaration@Dsymbol@@UAEPAUDeleteDeclaration@@XZ
		push	ECX
		xor	EAX,EAX
		pop	ECX
		ret
?isDeleteDeclaration@Dsymbol@@UAEPAUDeleteDeclaration@@XZ	ends
?isSymbolDeclaration@Dsymbol@@UAEPAUSymbolDeclaration@@XZ	comdat
	assume	CS:?isSymbolDeclaration@Dsymbol@@UAEPAUSymbolDeclaration@@XZ
		push	ECX
		xor	EAX,EAX
		pop	ECX
		ret
?isSymbolDeclaration@Dsymbol@@UAEPAUSymbolDeclaration@@XZ	ends
?isAttribDeclaration@Dsymbol@@UAEPAUAttribDeclaration@@XZ	comdat
	assume	CS:?isAttribDeclaration@Dsymbol@@UAEPAUAttribDeclaration@@XZ
		push	ECX
		xor	EAX,EAX
		pop	ECX
		ret
?isAttribDeclaration@Dsymbol@@UAEPAUAttribDeclaration@@XZ	ends
?isOverloadSet@Dsymbol@@UAEPAUOverloadSet@@XZ	comdat
	assume	CS:?isOverloadSet@Dsymbol@@UAEPAUOverloadSet@@XZ
		push	ECX
		xor	EAX,EAX
		pop	ECX
		ret
?isOverloadSet@Dsymbol@@UAEPAUOverloadSet@@XZ	ends
??_GScopeDsymbol@@UAEPAXI@Z	comdat
	assume	CS:??_GScopeDsymbol@@UAEPAXI@Z
L0:		push	EBX
		mov	EBX,ECX
		test	ECX,ECX
		je	L2C
		mov	dword ptr [EBX],offset FLAT:??_7ScopeDsymbol@@6B@
		mov	dword ptr [EBX],offset FLAT:??_7Dsymbol@@6B@
		mov	dword ptr [EBX],offset FLAT:??_7Object@@6B@
		test	dword ptr 8[ESP],1
		je	L2C
		push	EBX
		call	near ptr ??3@YAXPAX@Z
		add	ESP,4
L2C:		mov	EAX,EBX
		pop	EBX
		ret	4
??_GScopeDsymbol@@UAEPAXI@Z	ends
?isAggregateDeclaration@Dsymbol@@UAEPAUAggregateDeclaration@@XZ	comdat
	assume	CS:?isAggregateDeclaration@Dsymbol@@UAEPAUAggregateDeclaration@@XZ
		push	ECX
		xor	EAX,EAX
		pop	ECX
		ret
?isAggregateDeclaration@Dsymbol@@UAEPAUAggregateDeclaration@@XZ	ends
??_GDsymbol@@UAEPAXI@Z	comdat
	assume	CS:??_GDsymbol@@UAEPAXI@Z
L0:		push	EBX
		mov	EBX,ECX
		test	ECX,ECX
		je	L26
		mov	dword ptr [EBX],offset FLAT:??_7Dsymbol@@6B@
		mov	dword ptr [EBX],offset FLAT:??_7Object@@6B@
		test	dword ptr 8[ESP],1
		je	L26
		push	EBX
		call	near ptr ??3@YAXPAX@Z
		add	ESP,4
L26:		mov	EAX,EBX
		pop	EBX
		ret	4
??_GDsymbol@@UAEPAXI@Z	ends
?isScopeDsymbol@Dsymbol@@UAEPAUScopeDsymbol@@XZ	comdat
	assume	CS:?isScopeDsymbol@Dsymbol@@UAEPAUScopeDsymbol@@XZ
		push	ECX
		xor	EAX,EAX
		pop	ECX
		ret
?isScopeDsymbol@Dsymbol@@UAEPAUScopeDsymbol@@XZ	ends
??_GObject@@UAEPAXI@Z	comdat
	assume	CS:??_GObject@@UAEPAXI@Z
L0:		push	EBX
		mov	EBX,ECX
		test	ECX,ECX
		je	L20
		mov	dword ptr [EBX],offset FLAT:??_7Object@@6B@
		test	dword ptr 8[ESP],1
		je	L20
		push	EBX
		call	near ptr ??3@YAXPAX@Z
		add	ESP,4
L20:		mov	EAX,EBX
		pop	EBX
		ret	4
??_GObject@@UAEPAXI@Z	ends
??_7StructDeclaration@@6B@	comdat
	dd	offset FLAT:??_GStructDeclaration@@UAEPAXI@Z
	dd	offset FLAT:?equals@Dsymbol@@UAEHPAUObject@@@Z
	dd	offset FLAT:?hashCode@Object@@UAEIXZ
	dd	offset FLAT:?compare@Object@@UAEHPAU1@@Z
	dd	offset FLAT:?print@Object@@UAEXXZ
	dd	offset FLAT:?toChars@Dsymbol@@UAEPADXZ
	dd	offset FLAT:?toDchars@Object@@UAEPADXZ
	dd	offset FLAT:?toBuffer@Object@@UAEXPAUOutBuffer@@@Z
	dd	offset FLAT:?dyncast@Dsymbol@@UAEHXZ
	dd	offset FLAT:?toPrettyChars@Dsymbol@@UAEPBDXZ
	dd	offset FLAT:?kind@StructDeclaration@@UAEPBDXZ
	dd	offset FLAT:?toAlias@Dsymbol@@UAEPAU1@XZ
	dd	offset FLAT:?addMember@Dsymbol@@UAEHPAUScope@@PAUScopeDsymbol@@H@Z
	dd	offset FLAT:?setScope@Dsymbol@@UAEXPAUScope@@@Z
	dd	offset FLAT:?importAll@Dsymbol@@UAEXPAUScope@@@Z
	dd	offset FLAT:?semantic0@Dsymbol@@UAEXPAUScope@@@Z
	dd	offset FLAT:?semantic@StructDeclaration@@UAEXPAUScope@@@Z
	dd	offset FLAT:?semantic2@AggregateDeclaration@@UAEXPAUScope@@@Z
	dd	offset FLAT:?semantic3@AggregateDeclaration@@UAEXPAUScope@@@Z
	dd	offset FLAT:?inlineScan@AggregateDeclaration@@UAEXXZ
	dd	offset FLAT:?search@StructDeclaration@@UAEPAUDsymbol@@ULoc@@PAUIdentifier@@H@Z
	dd	offset FLAT:?overloadInsert@Dsymbol@@UAEHPAU1@@Z
	dd	offset FLAT:?toHBuffer@Dsymbol@@UAEXPAUOutBuffer@@PAUHdrGenState@@@Z
	dd	offset FLAT:?toCBuffer@StructDeclaration@@UAEXPAUOutBuffer@@PAUHdrGenState@@@Z
	dd	offset FLAT:?toDocBuffer@StructDeclaration@@UAEXPAUOutBuffer@@@Z
	dd	offset FLAT:?toJsonBuffer@AggregateDeclaration@@UAEXPAUOutBuffer@@@Z
	dd	offset FLAT:?size@AggregateDeclaration@@UAEIULoc@@@Z
	dd	offset FLAT:?isforwardRef@ScopeDsymbol@@UAEHXZ
	dd	offset FLAT:?defineRef@ScopeDsymbol@@UAEXPAUDsymbol@@@Z
	dd	offset FLAT:?isThis@Dsymbol@@UAEPAUAggregateDeclaration@@XZ
	dd	offset FLAT:?isClassMember@Dsymbol@@UAEPAUClassDeclaration@@XZ
	dd	offset FLAT:?isExport@Dsymbol@@UAEHXZ
	dd	offset FLAT:?isImportedSymbol@Dsymbol@@UAEHXZ
	dd	offset FLAT:?isDeprecated@AggregateDeclaration@@UAEHXZ
	dd	offset FLAT:?isLabel@Dsymbol@@UAEPAULabelDsymbol@@XZ
	dd	offset FLAT:?isMember@Dsymbol@@UAEPAUAggregateDeclaration@@XZ
	dd	offset FLAT:?getType@AggregateDeclaration@@UAEPAUType@@XZ
	dd	offset FLAT:?mangle@StructDeclaration@@UAEPADXZ
	dd	offset FLAT:?needThis@Dsymbol@@UAEHXZ
	dd	offset FLAT:?prot@AggregateDeclaration@@UAE?AW4PROT@@XZ
	dd	offset FLAT:?syntaxCopy@StructDeclaration@@UAEPAUDsymbol@@PAU2@@Z
	dd	offset FLAT:?oneMember@Dsymbol@@UAEHPAPAU1@@Z
	dd	offset FLAT:?hasPointers@Dsymbol@@UAEHXZ
	dd	offset FLAT:?addLocalClass@Dsymbol@@UAEXPAUClassDeclarations@@@Z
	dd	offset FLAT:?checkCtorConstInit@Dsymbol@@UAEXXZ
	dd	offset FLAT:?addComment@Dsymbol@@UAEXPAE@Z
	dd	offset FLAT:?emitComment@AggregateDeclaration@@UAEXPAUScope@@@Z
	dd	offset FLAT:?toSymbol@Dsymbol@@UAEPAUSymbol@@XZ
	dd	offset FLAT:?toObjFile@StructDeclaration@@UAEXH@Z
	dd	offset FLAT:?cvMember@Dsymbol@@UAEHPAE@Z
	dd	offset FLAT:?isPackage@Dsymbol@@UAEPAUPackage@@XZ
	dd	offset FLAT:?isModule@Dsymbol@@UAEPAUModule@@XZ
	dd	offset FLAT:?isEnumMember@Dsymbol@@UAEPAUEnumMember@@XZ
	dd	offset FLAT:?isTemplateDeclaration@Dsymbol@@UAEPAUTemplateDeclaration@@XZ
	dd	offset FLAT:?isTemplateInstance@Dsymbol@@UAEPAUTemplateInstance@@XZ
	dd	offset FLAT:?isTemplateMixin@Dsymbol@@UAEPAUTemplateMixin@@XZ
	dd	offset FLAT:?isDeclaration@Dsymbol@@UAEPAUDeclaration@@XZ
	dd	offset FLAT:?isThisDeclaration@Dsymbol@@UAEPAUThisDeclaration@@XZ
	dd	offset FLAT:?isTupleDeclaration@Dsymbol@@UAEPAUTupleDeclaration@@XZ
	dd	offset FLAT:?isTypedefDeclaration@Dsymbol@@UAEPAUTypedefDeclaration@@XZ
	dd	offset FLAT:?isAliasDeclaration@Dsymbol@@UAEPAUAliasDeclaration@@XZ
	dd	offset FLAT:?isAggregateDeclaration@AggregateDeclaration@@UAEPAU1@XZ
	dd	offset FLAT:?isFuncDeclaration@Dsymbol@@UAEPAUFuncDeclaration@@XZ
	dd	offset FLAT:?isFuncAliasDeclaration@Dsymbol@@UAEPAUFuncAliasDeclaration@@XZ
	dd	offset FLAT:?isFuncLiteralDeclaration@Dsymbol@@UAEPAUFuncLiteralDeclaration@@XZ
	dd	offset FLAT:?isCtorDeclaration@Dsymbol@@UAEPAUCtorDeclaration@@XZ
	dd	offset FLAT:?isPostBlitDeclaration@Dsymbol@@UAEPAUPostBlitDeclaration@@XZ
	dd	offset FLAT:?isDtorDeclaration@Dsymbol@@UAEPAUDtorDeclaration@@XZ
	dd	offset FLAT:?isStaticCtorDeclaration@Dsymbol@@UAEPAUStaticCtorDeclaration@@XZ
	dd	offset FLAT:?isStaticDtorDeclaration@Dsymbol@@UAEPAUStaticDtorDeclaration@@XZ
	dd	offset FLAT:?isInvariantDeclaration@Dsymbol@@UAEPAUInvariantDeclaration@@XZ
	dd	offset FLAT:?isUnitTestDeclaration@Dsymbol@@UAEPAUUnitTestDeclaration@@XZ
	dd	offset FLAT:?isNewDeclaration@Dsymbol@@UAEPAUNewDeclaration@@XZ
	dd	offset FLAT:?isVarDeclaration@Dsymbol@@UAEPAUVarDeclaration@@XZ
	dd	offset FLAT:?isClassDeclaration@Dsymbol@@UAEPAUClassDeclaration@@XZ
	dd	offset FLAT:?isStructDeclaration@StructDeclaration@@UAEPAU1@XZ
	dd	offset FLAT:?isUnionDeclaration@Dsymbol@@UAEPAUUnionDeclaration@@XZ
	dd	offset FLAT:?isInterfaceDeclaration@Dsymbol@@UAEPAUInterfaceDeclaration@@XZ
	dd	offset FLAT:?isScopeDsymbol@ScopeDsymbol@@UAEPAU1@XZ
	dd	offset FLAT:?isWithScopeSymbol@Dsymbol@@UAEPAUWithScopeSymbol@@XZ
	dd	offset FLAT:?isArrayScopeSymbol@Dsymbol@@UAEPAUArrayScopeSymbol@@XZ
	dd	offset FLAT:?isImport@Dsymbol@@UAEPAUImport@@XZ
	dd	offset FLAT:?isEnumDeclaration@Dsymbol@@UAEPAUEnumDeclaration@@XZ
	dd	offset FLAT:?isDeleteDeclaration@Dsymbol@@UAEPAUDeleteDeclaration@@XZ
	dd	offset FLAT:?isSymbolDeclaration@Dsymbol@@UAEPAUSymbolDeclaration@@XZ
	dd	offset FLAT:?isAttribDeclaration@Dsymbol@@UAEPAUAttribDeclaration@@XZ
	dd	offset FLAT:?isOverloadSet@Dsymbol@@UAEPAUOverloadSet@@XZ
	dd	offset FLAT:?symtabInsert@ScopeDsymbol@@UAEPAUDsymbol@@PAU2@@Z
	dd	offset FLAT:?getAccess@StructDeclaration@@UAE?AW4PROT@@PAUDsymbol@@@Z
??_7StructDeclaration@@6B@	ends
??_GStructDeclaration@@UAEPAXI@Z	comdat
	assume	CS:??_GStructDeclaration@@UAEPAXI@Z
L0:		push	ECX
		test	ECX,ECX
		push	EBX
		mov	EBX,ECX
		push	ESI
		je	L55
		lea	ESI,088h[EBX]
		mov	dword ptr [EBX],offset FLAT:??_7StructDeclaration@@6B@
		mov	ECX,ESI
		mov	dword ptr [EBX],offset FLAT:??_7AggregateDeclaration@@6B@
		mov	dword ptr [ESI],offset FLAT:??_7FuncDeclarations@@6B@
		call	near ptr ??1Array@@UAE@XZ
		lea	ECX,060h[EBX]
		call	near ptr ??1Array@@UAE@XZ
		mov	dword ptr [EBX],offset FLAT:??_7ScopeDsymbol@@6B@
		mov	dword ptr [EBX],offset FLAT:??_7Dsymbol@@6B@
		mov	dword ptr [EBX],offset FLAT:??_7Object@@6B@
		test	dword ptr 010h[ESP],1
		je	L55
		push	EBX
		call	near ptr ??3@YAXPAX@Z
		add	ESP,4
L55:		mov	EAX,EBX
		pop	ESI
		pop	EBX
		pop	ECX
		ret	4
??_GStructDeclaration@@UAEPAXI@Z	ends
?isStructDeclaration@StructDeclaration@@UAEPAU1@XZ	comdat
	assume	CS:?isStructDeclaration@StructDeclaration@@UAEPAU1@XZ
		push	ECX
		mov	EAX,ECX
		pop	ECX
		ret
?isStructDeclaration@StructDeclaration@@UAEPAU1@XZ	ends
??_7Parameters@@6B@	comdat
	dd	offset FLAT:??_GParameters@@UAEPAXI@Z
	dd	offset FLAT:?equals@Object@@UAEHPAU1@@Z
	dd	offset FLAT:?hashCode@Object@@UAEIXZ
	dd	offset FLAT:?compare@Object@@UAEHPAU1@@Z
	dd	offset FLAT:?print@Object@@UAEXXZ
	dd	offset FLAT:?toChars@Array@@UAEPADXZ
	dd	offset FLAT:?toDchars@Object@@UAEPADXZ
	dd	offset FLAT:?toBuffer@Object@@UAEXPAUOutBuffer@@@Z
	dd	offset FLAT:?dyncast@Object@@UAEHXZ
??_7Parameters@@6B@	ends
??_7Expressions@@6B@	comdat
	dd	offset FLAT:??_GExpressions@@UAEPAXI@Z
	dd	offset FLAT:?equals@Object@@UAEHPAU1@@Z
	dd	offset FLAT:?hashCode@Object@@UAEIXZ
	dd	offset FLAT:?compare@Object@@UAEHPAU1@@Z
	dd	offset FLAT:?print@Object@@UAEXXZ
	dd	offset FLAT:?toChars@Array@@UAEPADXZ
	dd	offset FLAT:?toDchars@Object@@UAEPADXZ
	dd	offset FLAT:?toBuffer@Object@@UAEXPAUOutBuffer@@@Z
	dd	offset FLAT:?dyncast@Object@@UAEHXZ
??_7Expressions@@6B@	ends
??_GParameters@@UAEPAXI@Z	comdat
	assume	CS:??_GParameters@@UAEPAXI@Z
L0:		push	EBX
		mov	EBX,ECX
		test	ECX,ECX
		je	L25
		mov	dword ptr [EBX],offset FLAT:??_7Parameters@@6B@
		call	near ptr ??1Array@@UAE@XZ
		test	dword ptr 8[ESP],1
		je	L25
		push	EBX
		call	near ptr ??3@YAXPAX@Z
		add	ESP,4
L25:		mov	EAX,EBX
		pop	EBX
		ret	4
??_GParameters@@UAEPAXI@Z	ends
??_GExpressions@@UAEPAXI@Z	comdat
	assume	CS:??_GExpressions@@UAEPAXI@Z
L0:		push	EBX
		mov	EBX,ECX
		test	ECX,ECX
		je	L25
		mov	dword ptr [EBX],offset FLAT:??_7Expressions@@6B@
		call	near ptr ??1Array@@UAE@XZ
		test	dword ptr 8[ESP],1
		je	L25
		push	EBX
		call	near ptr ??3@YAXPAX@Z
		add	ESP,4
L25:		mov	EAX,EBX
		pop	EBX
		ret	4
??_GExpressions@@UAEPAXI@Z	ends
??_7UnionDeclaration@@6B@	comdat
	dd	offset FLAT:??_GUnionDeclaration@@UAEPAXI@Z
	dd	offset FLAT:?equals@Dsymbol@@UAEHPAUObject@@@Z
	dd	offset FLAT:?hashCode@Object@@UAEIXZ
	dd	offset FLAT:?compare@Object@@UAEHPAU1@@Z
	dd	offset FLAT:?print@Object@@UAEXXZ
	dd	offset FLAT:?toChars@Dsymbol@@UAEPADXZ
	dd	offset FLAT:?toDchars@Object@@UAEPADXZ
	dd	offset FLAT:?toBuffer@Object@@UAEXPAUOutBuffer@@@Z
	dd	offset FLAT:?dyncast@Dsymbol@@UAEHXZ
	dd	offset FLAT:?toPrettyChars@Dsymbol@@UAEPBDXZ
	dd	offset FLAT:?kind@UnionDeclaration@@UAEPBDXZ
	dd	offset FLAT:?toAlias@Dsymbol@@UAEPAU1@XZ
	dd	offset FLAT:?addMember@Dsymbol@@UAEHPAUScope@@PAUScopeDsymbol@@H@Z
	dd	offset FLAT:?setScope@Dsymbol@@UAEXPAUScope@@@Z
	dd	offset FLAT:?importAll@Dsymbol@@UAEXPAUScope@@@Z
	dd	offset FLAT:?semantic0@Dsymbol@@UAEXPAUScope@@@Z
	dd	offset FLAT:?semantic@StructDeclaration@@UAEXPAUScope@@@Z
	dd	offset FLAT:?semantic2@AggregateDeclaration@@UAEXPAUScope@@@Z
	dd	offset FLAT:?semantic3@AggregateDeclaration@@UAEXPAUScope@@@Z
	dd	offset FLAT:?inlineScan@AggregateDeclaration@@UAEXXZ
	dd	offset FLAT:?search@StructDeclaration@@UAEPAUDsymbol@@ULoc@@PAUIdentifier@@H@Z
	dd	offset FLAT:?overloadInsert@Dsymbol@@UAEHPAU1@@Z
	dd	offset FLAT:?toHBuffer@Dsymbol@@UAEXPAUOutBuffer@@PAUHdrGenState@@@Z
	dd	offset FLAT:?toCBuffer@StructDeclaration@@UAEXPAUOutBuffer@@PAUHdrGenState@@@Z
	dd	offset FLAT:?toDocBuffer@StructDeclaration@@UAEXPAUOutBuffer@@@Z
	dd	offset FLAT:?toJsonBuffer@AggregateDeclaration@@UAEXPAUOutBuffer@@@Z
	dd	offset FLAT:?size@AggregateDeclaration@@UAEIULoc@@@Z
	dd	offset FLAT:?isforwardRef@ScopeDsymbol@@UAEHXZ
	dd	offset FLAT:?defineRef@ScopeDsymbol@@UAEXPAUDsymbol@@@Z
	dd	offset FLAT:?isThis@Dsymbol@@UAEPAUAggregateDeclaration@@XZ
	dd	offset FLAT:?isClassMember@Dsymbol@@UAEPAUClassDeclaration@@XZ
	dd	offset FLAT:?isExport@Dsymbol@@UAEHXZ
	dd	offset FLAT:?isImportedSymbol@Dsymbol@@UAEHXZ
	dd	offset FLAT:?isDeprecated@AggregateDeclaration@@UAEHXZ
	dd	offset FLAT:?isLabel@Dsymbol@@UAEPAULabelDsymbol@@XZ
	dd	offset FLAT:?isMember@Dsymbol@@UAEPAUAggregateDeclaration@@XZ
	dd	offset FLAT:?getType@AggregateDeclaration@@UAEPAUType@@XZ
	dd	offset FLAT:?mangle@StructDeclaration@@UAEPADXZ
	dd	offset FLAT:?needThis@Dsymbol@@UAEHXZ
	dd	offset FLAT:?prot@AggregateDeclaration@@UAE?AW4PROT@@XZ
	dd	offset FLAT:?syntaxCopy@UnionDeclaration@@UAEPAUDsymbol@@PAU2@@Z
	dd	offset FLAT:?oneMember@Dsymbol@@UAEHPAPAU1@@Z
	dd	offset FLAT:?hasPointers@Dsymbol@@UAEHXZ
	dd	offset FLAT:?addLocalClass@Dsymbol@@UAEXPAUClassDeclarations@@@Z
	dd	offset FLAT:?checkCtorConstInit@Dsymbol@@UAEXXZ
	dd	offset FLAT:?addComment@Dsymbol@@UAEXPAE@Z
	dd	offset FLAT:?emitComment@AggregateDeclaration@@UAEXPAUScope@@@Z
	dd	offset FLAT:?toSymbol@Dsymbol@@UAEPAUSymbol@@XZ
	dd	offset FLAT:?toObjFile@StructDeclaration@@UAEXH@Z
	dd	offset FLAT:?cvMember@Dsymbol@@UAEHPAE@Z
	dd	offset FLAT:?isPackage@Dsymbol@@UAEPAUPackage@@XZ
	dd	offset FLAT:?isModule@Dsymbol@@UAEPAUModule@@XZ
	dd	offset FLAT:?isEnumMember@Dsymbol@@UAEPAUEnumMember@@XZ
	dd	offset FLAT:?isTemplateDeclaration@Dsymbol@@UAEPAUTemplateDeclaration@@XZ
	dd	offset FLAT:?isTemplateInstance@Dsymbol@@UAEPAUTemplateInstance@@XZ
	dd	offset FLAT:?isTemplateMixin@Dsymbol@@UAEPAUTemplateMixin@@XZ
	dd	offset FLAT:?isDeclaration@Dsymbol@@UAEPAUDeclaration@@XZ
	dd	offset FLAT:?isThisDeclaration@Dsymbol@@UAEPAUThisDeclaration@@XZ
	dd	offset FLAT:?isTupleDeclaration@Dsymbol@@UAEPAUTupleDeclaration@@XZ
	dd	offset FLAT:?isTypedefDeclaration@Dsymbol@@UAEPAUTypedefDeclaration@@XZ
	dd	offset FLAT:?isAliasDeclaration@Dsymbol@@UAEPAUAliasDeclaration@@XZ
	dd	offset FLAT:?isAggregateDeclaration@AggregateDeclaration@@UAEPAU1@XZ
	dd	offset FLAT:?isFuncDeclaration@Dsymbol@@UAEPAUFuncDeclaration@@XZ
	dd	offset FLAT:?isFuncAliasDeclaration@Dsymbol@@UAEPAUFuncAliasDeclaration@@XZ
	dd	offset FLAT:?isFuncLiteralDeclaration@Dsymbol@@UAEPAUFuncLiteralDeclaration@@XZ
	dd	offset FLAT:?isCtorDeclaration@Dsymbol@@UAEPAUCtorDeclaration@@XZ
	dd	offset FLAT:?isPostBlitDeclaration@Dsymbol@@UAEPAUPostBlitDeclaration@@XZ
	dd	offset FLAT:?isDtorDeclaration@Dsymbol@@UAEPAUDtorDeclaration@@XZ
	dd	offset FLAT:?isStaticCtorDeclaration@Dsymbol@@UAEPAUStaticCtorDeclaration@@XZ
	dd	offset FLAT:?isStaticDtorDeclaration@Dsymbol@@UAEPAUStaticDtorDeclaration@@XZ
	dd	offset FLAT:?isInvariantDeclaration@Dsymbol@@UAEPAUInvariantDeclaration@@XZ
	dd	offset FLAT:?isUnitTestDeclaration@Dsymbol@@UAEPAUUnitTestDeclaration@@XZ
	dd	offset FLAT:?isNewDeclaration@Dsymbol@@UAEPAUNewDeclaration@@XZ
	dd	offset FLAT:?isVarDeclaration@Dsymbol@@UAEPAUVarDeclaration@@XZ
	dd	offset FLAT:?isClassDeclaration@Dsymbol@@UAEPAUClassDeclaration@@XZ
	dd	offset FLAT:?isStructDeclaration@StructDeclaration@@UAEPAU1@XZ
	dd	offset FLAT:?isUnionDeclaration@UnionDeclaration@@UAEPAU1@XZ
	dd	offset FLAT:?isInterfaceDeclaration@Dsymbol@@UAEPAUInterfaceDeclaration@@XZ
	dd	offset FLAT:?isScopeDsymbol@ScopeDsymbol@@UAEPAU1@XZ
	dd	offset FLAT:?isWithScopeSymbol@Dsymbol@@UAEPAUWithScopeSymbol@@XZ
	dd	offset FLAT:?isArrayScopeSymbol@Dsymbol@@UAEPAUArrayScopeSymbol@@XZ
	dd	offset FLAT:?isImport@Dsymbol@@UAEPAUImport@@XZ
	dd	offset FLAT:?isEnumDeclaration@Dsymbol@@UAEPAUEnumDeclaration@@XZ
	dd	offset FLAT:?isDeleteDeclaration@Dsymbol@@UAEPAUDeleteDeclaration@@XZ
	dd	offset FLAT:?isSymbolDeclaration@Dsymbol@@UAEPAUSymbolDeclaration@@XZ
	dd	offset FLAT:?isAttribDeclaration@Dsymbol@@UAEPAUAttribDeclaration@@XZ
	dd	offset FLAT:?isOverloadSet@Dsymbol@@UAEPAUOverloadSet@@XZ
	dd	offset FLAT:?symtabInsert@ScopeDsymbol@@UAEPAUDsymbol@@PAU2@@Z
	dd	offset FLAT:?getAccess@StructDeclaration@@UAE?AW4PROT@@PAUDsymbol@@@Z
??_7UnionDeclaration@@6B@	ends
??_GUnionDeclaration@@UAEPAXI@Z	comdat
	assume	CS:??_GUnionDeclaration@@UAEPAXI@Z
L0:		push	ECX
		test	ECX,ECX
		push	EBX
		mov	EBX,ECX
		push	ESI
		je	L5B
		lea	ESI,088h[EBX]
		mov	dword ptr [EBX],offset FLAT:??_7UnionDeclaration@@6B@
		mov	ECX,ESI
		mov	dword ptr [EBX],offset FLAT:??_7StructDeclaration@@6B@
		mov	dword ptr [EBX],offset FLAT:??_7AggregateDeclaration@@6B@
		mov	dword ptr [ESI],offset FLAT:??_7FuncDeclarations@@6B@
		call	near ptr ??1Array@@UAE@XZ
		lea	ECX,060h[EBX]
		call	near ptr ??1Array@@UAE@XZ
		mov	dword ptr [EBX],offset FLAT:??_7ScopeDsymbol@@6B@
		mov	dword ptr [EBX],offset FLAT:??_7Dsymbol@@6B@
		mov	dword ptr [EBX],offset FLAT:??_7Object@@6B@
		test	dword ptr 010h[ESP],1
		je	L5B
		push	EBX
		call	near ptr ??3@YAXPAX@Z
		add	ESP,4
L5B:		mov	EAX,EBX
		pop	ESI
		pop	EBX
		pop	ECX
		ret	4
??_GUnionDeclaration@@UAEPAXI@Z	ends
?isUnionDeclaration@UnionDeclaration@@UAEPAU1@XZ	comdat
	assume	CS:?isUnionDeclaration@UnionDeclaration@@UAEPAU1@XZ
		push	ECX
		mov	EAX,ECX
		pop	ECX
		ret
?isUnionDeclaration@UnionDeclaration@@UAEPAU1@XZ	ends
	end
